(dp0
(cnumpy.core.multiarray
scalar
p1
(cnumpy
dtype
p2
(S'i8'
p3
I0
I1
tp4
Rp5
(I3
S'<'
p6
NNNI-1
I-1
I0
tp7
bS'e\x00\x00\x00\x00\x00\x00\x00'
p8
tp9
Rp10
F0.039
tp11
I84
s(g1
(g5
S'\xc8\x00\x00\x00\x00\x00\x00\x00'
p12
tp13
Rp14
F0.043
tp15
I80
s(g1
(g5
S'Z\x00\x00\x00\x00\x00\x00\x00'
p16
tp17
Rp18
F0.0
tp19
I66
s(g1
(g5
S'P\x00\x00\x00\x00\x00\x00\x00'
p20
tp21
Rp22
F0.09
tp23
I73
s(g1
(g5
S'M\x00\x00\x00\x00\x00\x00\x00'
p24
tp25
Rp26
F0.04
tp27
I83
s(g1
(g5
S'F\x00\x00\x00\x00\x00\x00\x00'
p28
tp29
Rp30
F0.09
tp31
I71
s(g1
(g5
S'\xa5\x00\x00\x00\x00\x00\x00\x00'
p32
tp33
Rp34
F0.035
tp35
I80
s(g1
(g5
S'w\x00\x00\x00\x00\x00\x00\x00'
p36
tp37
Rp38
F0.043
tp39
I82
s(g1
(g5
S'\x91\x00\x00\x00\x00\x00\x00\x00'
p40
tp41
Rp42
F0.06
tp43
I78
s(g1
(g5
S'i\x00\x00\x00\x00\x00\x00\x00'
p44
tp45
Rp46
F0.15
tp47
I78
s(g1
(g5
S'\xa0\x00\x00\x00\x00\x00\x00\x00'
p48
tp49
Rp50
F0.01
tp51
I73
s(g1
(g5
S'\x84\x00\x00\x00\x00\x00\x00\x00'
p52
tp53
Rp54
F0.06
tp55
I77
s(g1
(g5
S'g\x00\x00\x00\x00\x00\x00\x00'
p56
tp57
Rp58
F0.039
tp59
I84
s(g1
(g5
S'\x82\x00\x00\x00\x00\x00\x00\x00'
p60
tp61
Rp62
F0.041
tp63
I81
s(g1
(g5
S'\xb4\x00\x00\x00\x00\x00\x00\x00'
p64
tp65
Rp66
F0.037
tp67
I81
s(g1
(g5
S'v\x00\x00\x00\x00\x00\x00\x00'
p68
tp69
Rp70
F0.02
tp71
I78
s(g1
(g5
S'\x82\x00\x00\x00\x00\x00\x00\x00'
p72
tp73
Rp74
F0.07
tp75
I77
s(g14
F0.041
tp76
I81
s(g1
(g5
S'P\x00\x00\x00\x00\x00\x00\x00'
p77
tp78
Rp79
F0.1
tp80
I73
s(g1
(g5
S'\x87\x00\x00\x00\x00\x00\x00\x00'
p81
tp82
Rp83
F0.041
tp84
I82
s(g1
(g5
S'p\x00\x00\x00\x00\x00\x00\x00'
p85
tp86
Rp87
F0.042
tp88
I84
s(g1
(g5
S'F\x00\x00\x00\x00\x00\x00\x00'
p89
tp90
Rp91
F0.04
tp92
I83
s(g1
(g5
S't\x00\x00\x00\x00\x00\x00\x00'
p93
tp94
Rp95
F0.043
tp96
I84
s(g1
(g5
S'\xc3\x00\x00\x00\x00\x00\x00\x00'
p97
tp98
Rp99
F0.037
tp100
I81
s(g1
(g5
S'r\x00\x00\x00\x00\x00\x00\x00'
p101
tp102
Rp103
F0.043
tp104
I84
s(g1
(g5
S'\x82\x00\x00\x00\x00\x00\x00\x00'
p105
tp106
Rp107
F0.06
tp108
I77
s(g1
(g5
S'F\x00\x00\x00\x00\x00\x00\x00'
p109
tp110
Rp111
F0.1
tp112
I70
s(g1
(g5
S'P\x00\x00\x00\x00\x00\x00\x00'
p113
tp114
Rp115
F0.06
tp116
I80
s(g1
(g5
S'[\x00\x00\x00\x00\x00\x00\x00'
p117
tp118
Rp119
F0.05
tp120
I82
s(g10
F0.042
tp121
I83
s(g1
(g5
S'\x9f\x00\x00\x00\x00\x00\x00\x00'
p122
tp123
Rp124
F0.15
tp125
I72
s(g1
(g5
S'm\x00\x00\x00\x00\x00\x00\x00'
p126
tp127
Rp128
F0.041
tp129
I84
s(g1
(g5
S'\xba\x00\x00\x00\x00\x00\x00\x00'
p130
tp131
Rp132
F0.04
tp133
I83
s(g1
(g5
S'd\x00\x00\x00\x00\x00\x00\x00'
p134
tp135
Rp136
F0.041
tp137
I82
s(g1
(g5
S'\x82\x00\x00\x00\x00\x00\x00\x00'
p138
tp139
Rp140
F0.1
tp141
I76
s(g1
(g5
S'\x84\x00\x00\x00\x00\x00\x00\x00'
p142
tp143
Rp144
F0.1
tp145
I76
s(g1
(g5
S'<\x00\x00\x00\x00\x00\x00\x00'
p146
tp147
Rp148
F0.05
tp149
I80
s(g1
(g5
S'u\x00\x00\x00\x00\x00\x00\x00'
p150
tp151
Rp152
F0.041
tp153
I83
s(g1
(g5
S'v\x00\x00\x00\x00\x00\x00\x00'
p154
tp155
Rp156
F0.041
tp157
I83
s(g103
F0.041
tp158
I84
s(g1
(g5
S'\xbe\x00\x00\x00\x00\x00\x00\x00'
p159
tp160
Rp161
F0.02
tp162
I75
s(g42
F0.02
tp163
I76
s(g1
(g5
S'k\x00\x00\x00\x00\x00\x00\x00'
p164
tp165
Rp166
F0.043
tp167
I84
s(g161
F0.08
tp168
I75
s(g70
F0.06
tp169
I80
s(g1
(g5
S'M\x00\x00\x00\x00\x00\x00\x00'
p170
tp171
Rp172
F0.1
tp173
I72
s(g1
(g5
S'\xaf\x00\x00\x00\x00\x00\x00\x00'
p174
tp175
Rp176
F0.041
tp177
I83
s(g1
(g5
S'\xa0\x00\x00\x00\x00\x00\x00\x00'
p178
tp179
Rp180
F0.041
tp181
I82
s(g1
(g5
S'%\x00\x00\x00\x00\x00\x00\x00'
p182
tp183
Rp184
F0.06
tp185
I72
s(g1
(g5
S'x\x00\x00\x00\x00\x00\x00\x00'
p186
tp187
Rp188
F0.06
tp189
I81
s(g128
F0.042
tp190
I84
s(g1
(g5
S'\xbe\x00\x00\x00\x00\x00\x00\x00'
p191
tp192
Rp193
F0.041
tp194
I81
s(g1
(g5
S'h\x00\x00\x00\x00\x00\x00\x00'
p195
tp196
Rp197
F0.037
tp198
I82
s(g184
F0.04
tp199
I76
s(g1
(g5
S'\xbe\x00\x00\x00\x00\x00\x00\x00'
p200
tp201
Rp202
F0.09
tp203
I74
s(g1
(g5
S'\xb4\x00\x00\x00\x00\x00\x00\x00'
p204
tp205
Rp206
F0.09
tp207
I74
s(g1
(g5
S'\x1e\x00\x00\x00\x00\x00\x00\x00'
p208
tp209
Rp210
F0.01
tp211
I69
s(g152
F0.039
tp212
I83
s(g1
(g5
S'n\x00\x00\x00\x00\x00\x00\x00'
p213
tp214
Rp215
F0.07
tp216
I82
s(g1
(g5
S'\xb4\x00\x00\x00\x00\x00\x00\x00'
p217
tp218
Rp219
F0.06
tp220
I78
s(g1
(g5
S'\xaa\x00\x00\x00\x00\x00\x00\x00'
p221
tp222
Rp223
F0.043
tp224
I80
s(g1
(g5
S'\x8c\x00\x00\x00\x00\x00\x00\x00'
p225
tp226
Rp227
F0.06
tp228
I80
s(g1
(g5
S'\x8c\x00\x00\x00\x00\x00\x00\x00'
p229
tp230
Rp231
F0.0
tp232
I66
s(g91
F0.02
tp233
I76
s(g1
(g5
S'f\x00\x00\x00\x00\x00\x00\x00'
p234
tp235
Rp236
F0.037
tp237
I83
s(g227
F0.04
tp238
I84
s(g1
(g5
S'\x14\x00\x00\x00\x00\x00\x00\x00'
p239
tp240
Rp241
F0.06
tp242
I72
s(g1
(g5
S'd\x00\x00\x00\x00\x00\x00\x00'
p243
tp244
Rp245
F0.2
tp246
I75
s(g1
(g5
S'\x91\x00\x00\x00\x00\x00\x00\x00'
p247
tp248
Rp249
F0.041
tp250
I83
s(g1
(g5
S'l\x00\x00\x00\x00\x00\x00\x00'
p251
tp252
Rp253
F0.039
tp254
I84
s(g1
(g5
S'i\x00\x00\x00\x00\x00\x00\x00'
p255
tp256
Rp257
F0.08
tp258
I78
s(g1
(g5
S'\x1e\x00\x00\x00\x00\x00\x00\x00'
p259
tp260
Rp261
F0.2
tp262
I65
s(g1
(g5
S'i\x00\x00\x00\x00\x00\x00\x00'
p263
tp264
Rp265
F0.043
tp266
I82
s(g83
F0.035
tp267
I81
s(g111
F0.05
tp268
I79
s(g223
F0.035
tp269
I81
s(g79
F0.05
tp270
I82
s(g136
F0.035
tp271
I81
s(g148
F0.0
tp272
I66
s(g1
(g5
S'\xba\x00\x00\x00\x00\x00\x00\x00'
p273
tp274
Rp275
F0.1
tp276
I74
s(g62
F0.039
tp277
I82
s(g14
F0.039
tp278
I82
s(g1
(g5
S'o\x00\x00\x00\x00\x00\x00\x00'
p279
tp280
Rp281
F0.043
tp282
I84
s(g95
F0.041
tp283
I84
s(g1
(g5
S'\x1e\x00\x00\x00\x00\x00\x00\x00'
p284
tp285
Rp286
F0.06
tp287
I71
s(g58
F0.041
tp288
I83
s(g245
F0.15
tp289
I76
s(g1
(g5
S'\x14\x00\x00\x00\x00\x00\x00\x00'
p290
tp291
Rp292
F0.03
tp293
I70
s(g265
F0.041
tp294
I82
s(g1
(g5
S'\x9f\x00\x00\x00\x00\x00\x00\x00'
p295
tp296
Rp297
F0.08
tp298
I72
s(g1
(g5
S'[\x00\x00\x00\x00\x00\x00\x00'
p299
tp300
Rp301
F0.04
tp302
I83
s(g132
F0.02
tp303
I74
s(g95
F0.042
tp304
I84
s(g1
(g5
S'x\x00\x00\x00\x00\x00\x00\x00'
p305
tp306
Rp307
F0.01
tp308
I75
s(g1
(g5
S's\x00\x00\x00\x00\x00\x00\x00'
p309
tp310
Rp311
F0.039
tp312
I84
s(g128
F0.037
tp313
I83
s(g253
F0.042
tp314
I84
s(g1
(g5
S'x\x00\x00\x00\x00\x00\x00\x00'
p315
tp316
Rp317
F0.039
tp318
I83
s(g253
F0.043
tp319
I84
s(g140
F0.05
tp320
I79
s(g140
F0.15
tp321
I77
s(g26
F0.02
tp322
I76
s(g99
F0.039
tp323
I82
s(g50
F0.09
tp324
I72
s(g79
F0.15
tp325
I75
s(g1
(g5
S'\x96\x00\x00\x00\x00\x00\x00\x00'
p326
tp327
Rp328
F0.09
tp329
I72
s(g111
F0.2
tp330
I72
s(g1
(g5
S'2\x00\x00\x00\x00\x00\x00\x00'
p331
tp332
Rp333
F0.07
tp334
I75
s(g172
F0.2
tp335
I73
s(g95
F0.038
tp336
I82
s(g1
(g5
S'\n\x00\x00\x00\x00\x00\x00\x00'
p337
tp338
Rp339
F0.07
tp340
I71
s(g62
F0.035
tp341
I82
s(g1
(g5
S'n\x00\x00\x00\x00\x00\x00\x00'
p342
tp343
Rp344
F0.1
tp345
I79
s(g1
(g5
S'v\x00\x00\x00\x00\x00\x00\x00'
p346
tp347
Rp348
F0.0
tp349
I66
s(g1
(g5
S'\n\x00\x00\x00\x00\x00\x00\x00'
p350
tp351
Rp352
F0.1
tp353
I68
s(g236
F0.038
tp354
I83
s(g99
F0.041
tp355
I81
s(g128
F0.039
tp356
I84
s(g184
F0.08
tp357
I66
s(g1
(g5
S'@\x00\x00\x00\x00\x00\x00\x00'
p358
tp359
Rp360
F0.08
tp361
I71
s(g253
F0.041
tp362
I84
s(g339
F0.03
tp363
I71
s(g197
F0.041
tp364
I82
s(g297
F0.02
tp365
I76
s(g144
F0.0
tp366
I66
s(g1
(g5
S'x\x00\x00\x00\x00\x00\x00\x00'
p367
tp368
Rp369
F0.038
tp370
I81
s(g1
(g5
S'\xb9\x00\x00\x00\x00\x00\x00\x00'
p371
tp372
Rp373
F0.039
tp374
I82
s(g1
(g5
S'n\x00\x00\x00\x00\x00\x00\x00'
p375
tp376
Rp377
F0.043
tp378
I84
s(g257
F0.02
tp379
I80
s(g344
F0.0
tp380
I66
s(g301
F0.06
tp381
I79
s(g1
(g5
S'd\x00\x00\x00\x00\x00\x00\x00'
p382
tp383
Rp384
F0.03
tp385
I81
s(g1
(g5
S'@\x00\x00\x00\x00\x00\x00\x00'
p386
tp387
Rp388
F0.15
tp389
I71
s(g152
F0.038
tp390
I81
s(g1
(g5
S'\xaa\x00\x00\x00\x00\x00\x00\x00'
p391
tp392
Rp393
F0.04
tp394
I83
s(g215
F0.09
tp395
I78
s(g1
(g5
S'}\x00\x00\x00\x00\x00\x00\x00'
p396
tp397
Rp398
F0.041
tp399
I81
s(g352
F0.15
tp400
I66
s(g1
(g5
S'Z\x00\x00\x00\x00\x00\x00\x00'
p401
tp402
Rp403
F0.01
tp404
I75
s(g1
(g5
S'\xaa\x00\x00\x00\x00\x00\x00\x00'
p405
tp406
Rp407
F0.03
tp408
I82
s(g1
(g5
S'\x17\x00\x00\x00\x00\x00\x00\x00'
p409
tp410
Rp411
F0.0
tp412
I66
s(g215
F0.01
tp413
I75
s(g148
F0.15
tp414
I71
s(g1
(g5
S'\xc8\x00\x00\x00\x00\x00\x00\x00'
p415
tp416
Rp417
F0.07
tp418
I79
s(g286
F0.08
tp419
I65
s(g107
F0.08
tp420
I75
s(g87
F0.039
tp421
I84
s(g115
F0.04
tp422
I82
s(g384
F0.01
tp423
I76
s(g58
F0.042
tp424
I83
s(g1
(g5
S'\xac\x00\x00\x00\x00\x00\x00\x00'
p425
tp426
Rp427
F0.08
tp428
I72
s(g1
(g5
S'x\x00\x00\x00\x00\x00\x00\x00'
p429
tp430
Rp431
F0.15
tp432
I80
s(g62
F0.037
tp433
I81
s(g1
(g5
S's\x00\x00\x00\x00\x00\x00\x00'
p434
tp435
Rp436
F0.038
tp437
I83
s(g1
(g5
S'd\x00\x00\x00\x00\x00\x00\x00'
p438
tp439
Rp440
F0.038
tp441
I82
s(g261
F0.0
tp442
I66
s(g292
F0.09
tp443
I65
s(g161
F0.06
tp444
I78
s(g1
(g5
S'd\x00\x00\x00\x00\x00\x00\x00'
p445
tp446
Rp447
F0.08
tp448
I75
s(g384
F0.07
tp449
I78
s(g176
F0.039
tp450
I84
s(g99
F0.035
tp451
I81
s(g148
F0.2
tp452
I70
s(g249
F0.037
tp453
I83
s(g333
F0.01
tp454
I72
s(g1
(g5
S'(\x00\x00\x00\x00\x00\x00\x00'
p455
tp456
Rp457
F0.02
tp458
I71
s(g166
F0.039
tp459
I85
s(g83
F0.037
tp460
I81
s(g188
F0.02
tp461
I79
s(g1
(g5
S'<\x00\x00\x00\x00\x00\x00\x00'
p462
tp463
Rp464
F0.02
tp465
I77
s(g1
(g5
S'%\x00\x00\x00\x00\x00\x00\x00'
p466
tp467
Rp468
F0.0
tp469
I66
s(g411
F0.15
tp470
I66
s(g1
(g5
S'q\x00\x00\x00\x00\x00\x00\x00'
p471
tp472
Rp473
F0.037
tp474
I83
s(g1
(g5
S'2\x00\x00\x00\x00\x00\x00\x00'
p475
tp476
Rp477
F0.02
tp478
I75
s(g152
F0.037
tp479
I81
s(g193
F0.037
tp480
I81
s(g58
F0.037
tp481
I82
s(g328
F0.07
tp482
I76
s(g34
F0.043
tp483
I80
s(g1
(g5
S'\xc8\x00\x00\x00\x00\x00\x00\x00'
p484
tp485
Rp486
F0.1
tp487
I74
s(g431
F0.05
tp488
I81
s(g311
F0.043
tp489
I84
s(g473
F0.043
tp490
I84
s(g427
F0.02
tp491
I75
s(g265
F0.035
tp492
I82
s(g119
F0.15
tp493
I76
s(g457
F0.04
tp494
I76
s(g1
(g5
S'j\x00\x00\x00\x00\x00\x00\x00'
p495
tp496
Rp497
F0.037
tp498
I83
s(g344
F0.15
tp499
I79
s(g79
F0.0
tp500
I66
s(g377
F0.037
tp501
I83
s(g119
F0.1
tp502
I75
s(g249
F0.043
tp503
I83
s(g1
(g5
S'\n\x00\x00\x00\x00\x00\x00\x00'
p504
tp505
Rp506
F0.04
tp507
I69
s(g468
F0.05
tp508
I74
s(g464
F0.04
tp509
I82
s(g1
(g5
S'\x17\x00\x00\x00\x00\x00\x00\x00'
p510
tp511
Rp512
F0.08
tp513
I67
s(g245
F0.05
tp514
I82
s(g1
(g5
S'(\x00\x00\x00\x00\x00\x00\x00'
p515
tp516
Rp517
F0.15
tp518
I67
s(g38
F0.038
tp519
I81
s(g132
F0.08
tp520
I75
s(g74
F0.03
tp521
I83
s(g18
F0.15
tp522
I77
s(g411
F0.05
tp523
I76
s(g477
F0.06
tp524
I77
s(g34
F0.039
tp525
I82
s(g417
F0.09
tp526
I74
s(g317
F0.035
tp527
I81
s(g128
F0.043
tp528
I84
s(g257
F0.04
tp529
I83
s(g407
F0.07
tp530
I77
s(g140
F0.2
tp531
I76
s(g1
(g5
S'\x91\x00\x00\x00\x00\x00\x00\x00'
p532
tp533
Rp534
F0.0
tp535
I66
s(g54
F0.04
tp536
I82
s(g1
(g5
S'\x8c\x00\x00\x00\x00\x00\x00\x00'
p537
tp538
Rp539
F0.039
tp540
I84
s(g1
(g5
S'\x9b\x00\x00\x00\x00\x00\x00\x00'
p541
tp542
Rp543
F0.039
tp544
I81
s(g307
F0.09
tp545
I77
s(g275
F0.05
tp546
I80
s(g66
F0.039
tp547
I83
s(g107
F0.04
tp548
I82
s(g1
(g5
S'\x14\x00\x00\x00\x00\x00\x00\x00'
p549
tp550
Rp551
F0.05
tp552
I72
s(g417
F0.03
tp553
I81
s(g497
F0.041
tp554
I83
s(g427
F0.04
tp555
I84
s(g1
(g5
S'\x96\x00\x00\x00\x00\x00\x00\x00'
p556
tp557
Rp558
F0.041
tp559
I82
s(g180
F0.037
tp560
I81
s(g558
F0.037
tp561
I82
s(g1
(g5
S'n\x00\x00\x00\x00\x00\x00\x00'
p562
tp563
Rp564
F0.06
tp565
I82
s(g339
F0.09
tp566
I68
s(g38
F0.042
tp567
I83
s(g534
F0.2
tp568
I75
s(g202
F0.07
tp569
I79
s(g215
F0.03
tp570
I83
s(g103
F0.039
tp571
I84
s(g136
F0.043
tp572
I82
s(g373
F0.043
tp573
I81
s(g352
F0.0
tp574
I66
s(g1
(g5
S'\xc8\x00\x00\x00\x00\x00\x00\x00'
p575
tp576
Rp577
F0.02
tp578
I76
s(g281
F0.041
tp579
I84
s(g1
(g5
S'\xac\x00\x00\x00\x00\x00\x00\x00'
p580
tp581
Rp582
F0.1
tp583
I71
s(g140
F0.0
tp584
I66
s(g62
F0.043
tp585
I80
s(g281
F0.038
tp586
I83
s(g281
F0.037
tp587
I83
s(g1
(g5
S'\x96\x00\x00\x00\x00\x00\x00\x00'
p588
tp589
Rp590
F0.04
tp591
I83
s(g348
F0.1
tp592
I80
s(g1
(g5
S'2\x00\x00\x00\x00\x00\x00\x00'
p593
tp594
Rp595
F0.0
tp596
I66
s(g352
F0.2
tp597
I67
s(g257
F0.06
tp598
I79
s(g144
F0.2
tp599
I77
s(g156
F0.043
tp600
I82
s(g431
F0.1
tp601
I79
s(g184
F0.02
tp602
I72
s(g124
F0.2
tp603
I72
s(g22
F0.01
tp604
I75
s(g360
F0.04
tp605
I81
s(g1
(g5
S'(\x00\x00\x00\x00\x00\x00\x00'
p606
tp607
Rp608
F0.07
tp609
I71
s(g176
F0.035
tp610
I82
s(g608
F0.03
tp611
I75
s(g172
F0.15
tp612
I73
s(g210
F0.07
tp613
I69
s(g281
F0.042
tp614
I84
s(g360
F0.06
tp615
I76
s(g497
F0.042
tp616
I83
s(g10
F0.043
tp617
I83
s(g261
F0.1
tp618
I66
s(g373
F0.035
tp619
I81
s(g103
F0.037
tp620
I83
s(g393
F0.06
tp621
I76
s(g152
F0.043
tp622
I82
s(g227
F0.08
tp623
I75
s(g427
F0.06
tp624
I76
s(g1
(g5
S'\x8c\x00\x00\x00\x00\x00\x00\x00'
p625
tp626
Rp627
F0.07
tp628
I79
s(g1
(g5
S'\x96\x00\x00\x00\x00\x00\x00\x00'
p629
tp630
Rp631
F0.1
tp632
I72
s(g219
F0.08
tp633
I75
s(g197
F0.038
tp634
I82
s(g1
(g5
S'\xa0\x00\x00\x00\x00\x00\x00\x00'
p635
tp636
Rp637
F0.02
tp638
I76
s(g26
F0.08
tp639
I73
s(g136
F0.039
tp640
I83
s(g66
F0.041
tp641
I82
s(g564
F0.02
tp642
I79
s(g417
F0.01
tp643
I73
s(g543
F0.041
tp644
I80
s(g582
F0.2
tp645
I72
s(g14
F0.035
tp646
I81
s(g595
F0.2
tp647
I74
s(g292
F0.01
tp648
I70
s(g1
(g5
S'<\x00\x00\x00\x00\x00\x00\x00'
p649
tp650
Rp651
F0.01
tp652
I74
s(g388
F0.0
tp653
I66
s(g58
F0.043
tp654
I83
s(g30
F0.01
tp655
I75
s(g317
F0.041
tp656
I82
s(g265
F0.039
tp657
I83
s(g161
F0.04
tp658
I82
s(g249
F0.035
tp659
I82
s(g307
F0.03
tp660
I82
s(g83
F0.043
tp661
I82
s(g317
F0.043
tp662
I82
s(g38
F0.037
tp663
I81
s(g311
F0.035
tp664
I82
s(g261
F0.15
tp665
I64
s(g539
F0.037
tp666
I82
s(g534
F0.15
tp667
I76
s(g26
F0.06
tp668
I79
s(g447
F0.06
tp669
I78
s(g231
F0.2
tp670
I75
s(g144
F0.15
tp671
I77
s(g223
F0.039
tp672
I83
s(g1
(g5
S'i\x00\x00\x00\x00\x00\x00\x00'
p673
tp674
Rp675
F0.042
tp676
I82
s(g253
F0.038
tp677
I83
s(g447
F0.04
tp678
I83
s(g180
F0.035
tp679
I81
s(g188
F0.04
tp680
I83
s(g253
F0.037
tp681
I83
s(g551
F0.15
tp682
I64
s(g42
F0.08
tp683
I75
s(g1
(g5
S'Z\x00\x00\x00\x00\x00\x00\x00'
p684
tp685
Rp686
F0.04
tp687
I83
s(g99
F0.043
tp688
I80
s(g74
F0.09
tp689
I75
s(g30
F0.03
tp690
I80
s(g54
F0.02
tp691
I78
s(g577
F0.06
tp692
I78
s(g87
F0.038
tp693
I83
s(g377
F0.041
tp694
I84
s(g577
F0.04
tp695
I82
s(g70
F0.08
tp696
I78
s(g10
F0.037
tp697
I83
s(g236
F0.043
tp698
I83
s(g202
F0.01
tp699
I73
s(g193
F0.039
tp700
I82
s(g156
F0.039
tp701
I83
s(g333
F0.09
tp702
I72
s(g388
F0.2
tp703
I70
s(g551
F0.0
tp704
I66
s(g301
F0.02
tp705
I77
s(g180
F0.039
tp706
I83
s(g564
F0.04
tp707
I84
s(g124
F0.0
tp708
I66
s(g91
F0.06
tp709
I78
s(g236
F0.042
tp710
I83
s(g166
F0.041
tp711
I84
s(g497
F0.039
tp712
I84
s(g377
F0.039
tp713
I84
s(g403
F0.03
tp714
I80
s(g18
F0.2
tp715
I76
s(g539
F0.043
tp716
I83
s(g227
F0.02
tp717
I77
s(g156
F0.038
tp718
I81
s(g197
F0.042
tp719
I82
s(g377
F0.035
tp720
I82
s(g206
F0.01
tp721
I73
s(g517
F0.05
tp722
I74
s(g590
F0.02
tp723
I76
s(g497
F0.038
tp724
I83
s(g292
F0.07
tp725
I67
s(g333
F0.03
tp726
I76
s(g468
F0.2
tp727
I67
s(g166
F0.038
tp728
I84
s(g539
F0.041
tp729
I83
s(g373
F0.041
tp730
I82
s(g83
F0.039
tp731
I83
s(g464
F0.06
tp732
I78
s(g512
F0.02
tp733
I70
s(g275
F0.15
tp734
I75
s(g144
F0.05
tp735
I79
s(g558
F0.039
tp736
I83
s(g631
F0.15
tp737
I75
s(g241
F0.04
tp738
I70
s(g206
F0.03
tp739
I80
s(g398
F0.043
tp740
I81
s(g431
F0.2
tp741
I79
s(g297
F0.04
tp742
I82
s(g301
F0.08
tp743
I76
s(g188
F0.08
tp744
I77
s(g50
F0.03
tp745
I82
s(g223
F0.037
tp746
I81
s(g388
F0.05
tp747
I79
s(g311
F0.041
tp748
I84
s(g70
F0.04
tp749
I83
s(g79
F0.2
tp750
I75
s(g30
F0.07
tp751
I76
s(g148
F0.1
tp752
I69
s(g172
F0.05
tp753
I81
s(g87
F0.037
tp754
I83
s(g286
F0.04
tp755
I73
s(g95
F0.037
tp756
I82
s(g193
F0.043
tp757
I80
s(g245
F0.0
tp758
I66
s(g236
F0.039
tp759
I84
s(g595
F0.15
tp760
I74
s(g393
F0.08
tp761
I72
s(g360
F0.02
tp762
I76
s(g411
F0.2
tp763
I66
s(g197
F0.043
tp764
I82
s(g265
F0.037
tp765
I82
s(g551
F0.2
tp766
I63
s(g74
F0.01
tp767
I75
s(g675
F0.038
tp768
I82
s(g103
F0.038
tp769
I83
s(g311
F0.037
tp770
I83
s(g464
F0.08
tp771
I71
s(g457
F0.06
tp772
I73
s(g231
F0.15
tp773
I76
s(g180
F0.043
tp774
I81
s(g307
F0.07
tp775
I81
s(g223
F0.041
tp776
I81
s(g339
F0.01
tp777
I67
s(g551
F0.1
tp778
I64
s(g210
F0.03
tp779
I73
s(g517
F0.2
tp780
I66
s(g407
F0.09
tp781
I71
s(g286
F0.02
tp782
I70
s(g486
F0.15
tp783
I74
s(g352
F0.05
tp784
I70
s(g411
F0.1
tp785
I66
s(g686
F0.08
tp786
I76
s(g1
(g5
S'n\x00\x00\x00\x00\x00\x00\x00'
p787
tp788
Rp789
F0.042
tp790
I84
s(g595
F0.05
tp791
I77
s(g627
F0.01
tp792
I74
s(g631
F0.2
tp793
I76
s(g637
F0.08
tp794
I73
s(g261
F0.05
tp795
I74
s(g440
F0.042
tp796
I82
s(g582
F0.0
tp797
I66
s(g115
F0.02
tp798
I76
s(g468
F0.15
tp799
I67
s(g46
F0.2
tp800
I77
s(g231
F0.1
tp801
I74
s(g447
F0.02
tp802
I81
s(g403
F0.09
tp803
I75
s(g686
F0.02
tp804
I77
s(g328
F0.01
tp805
I73
s(g686
F0.06
tp806
I80
s(g517
F0.0
tp807
I66
s(g119
F0.2
tp808
I75
s(g468
F0.1
tp809
I66
s(g22
F0.07
tp810
I77
s(g373
F0.037
tp811
I81
s(g128
F0.038
tp812
I83
s(g477
F0.08
tp813
I71
s(g176
F0.037
tp814
I82
s(g393
F0.02
tp815
I75
s(g206
F0.07
tp816
I79
s(g297
F0.06
tp817
I77
s(g54
F0.08
tp818
I75
s(g595
F0.1
tp819
I72
s(g631
F0.0
tp820
I66
s(g14
F0.037
tp821
I81
s(g58
F0.038
tp822
I82
s(g477
F0.04
tp823
I77
s(g627
F0.03
tp824
I82
s(g473
F0.038
tp825
I83
s(g275
F0.0
tp826
I66
s(g486
F0.2
tp827
I74
s(g231
F0.05
tp828
I82
s(g651
F0.03
tp829
I80
s(g558
F0.035
tp830
I82
s(g115
F0.08
tp831
I74
s(g348
F0.2
tp832
I79
s(g111
F0.0
tp833
I66
s(g317
F0.037
tp834
I81
s(g344
F0.2
tp835
I79
s(g789
F0.038
tp836
I83
s(g517
F0.1
tp837
I65
s(g506
F0.08
tp838
I69
s(g275
F0.2
tp839
I75
s(g608
F0.09
tp840
I66
s(g403
F0.07
tp841
I80
s(g219
F0.04
tp842
I83
s(g210
F0.09
tp843
I66
s(g473
F0.041
tp844
I84
s(g539
F0.035
tp845
I82
s(g172
F0.0
tp846
I66
s(g197
F0.039
tp847
I83
s(g486
F0.0
tp848
I66
s(g219
F0.02
tp849
I74
s(g590
F0.06
tp850
I76
s(g436
F0.042
tp851
I84
s(g398
F0.035
tp852
I81
s(g497
F0.043
tp853
I83
s(g18
F0.05
tp854
I82
s(g124
F0.05
tp855
I78
s(g156
F0.042
tp856
I83
s(g95
F0.039
tp857
I84
s(g512
F0.06
tp858
I77
s(g103
F0.042
tp859
I84
s(g543
F0.037
tp860
I80
s(g431
F0.0
tp861
I66
s(g107
F0.02
tp862
I78
s(g38
F0.039
tp863
I83
s(g10
F0.038
tp864
I83
s(g91
F0.08
tp865
I72
s(g202
F0.03
tp866
I81
s(g241
F0.08
tp867
I66
s(g637
F0.04
tp868
I83
s(g398
F0.037
tp869
I81
s(g87
F0.043
tp870
I84
s(g119
F0.0
tp871
I66
s(g631
F0.05
tp872
I78
s(g369
F0.042
tp873
I82
s(g46
F0.05
tp874
I82
s(g348
F0.15
tp875
I80
s(g22
F0.03
tp876
I79
s(g38
F0.041
tp877
I83
s(g558
F0.043
tp878
I81
s(g193
F0.035
tp879
I81
s(g156
F0.037
tp880
I81
s(g34
F0.037
tp881
I80
s(g66
F0.035
tp882
I81
s(g87
F0.041
tp883
I84
s(g486
F0.05
tp884
I79
s(g398
F0.039
tp885
I82
s(g344
F0.05
tp886
I83
s(g627
F0.09
tp887
I74
s(g50
F0.07
tp888
I77
s(g34
F0.041
tp889
I81
s(g564
F0.08
tp890
I79
s(g506
F0.06
tp891
I72
s(g66
F0.043
tp892
I81
s(g281
F0.039
tp893
I84
s(g166
F0.037
tp894
I84
s(g18
F0.1
tp895
I75
s(g249
F0.039
tp896
I84
s(g348
F0.05
tp897
I81
s(g46
F0.0
tp898
I66
s(g534
F0.05
tp899
I81
s(g582
F0.05
tp900
I79
s(g651
F0.09
tp901
I69
s(g124
F0.1
tp902
I71
s(g534
F0.1
tp903
I74
s(g651
F0.07
tp904
I76
s(g473
F0.042
tp905
I84
s(g152
F0.042
tp906
I83
s(g407
F0.01
tp907
I72
s(g543
F0.035
tp908
I80
s(g506
F0.02
tp909
I71
s(g457
F0.08
tp910
I67
s(g136
F0.037
tp911
I82
s(g473
F0.039
tp912
I84
s(g637
F0.06
tp913
I77
s(g543
F0.043
tp914
I79
s(g132
F0.06
tp915
I78
s(g512
F0.04
tp916
I74
s(g328
F0.03
tp917
I83
s(g10
F0.041
tp918
I83
s(g236
F0.041
tp919
I83
s(g42
F0.04
tp920
I84
s(g111
F0.15
tp921
I71
s(g46
F0.1
tp922
I77
s(g245
F0.1
tp923
I75
s(g176
F0.043
tp924
I82
s(g388
F0.1
tp925
I69
s(g577
F0.08
tp926
I75
s(g582
F0.15
tp927
I72
s(g608
F0.01
tp928
I71
s(g241
F0.02
tp929
I69
s(g590
F0.08
tp930
I72
s(g384
F0.09
tp931
I74
s(g166
F0.042
tp932
I84
s.