(dp0
(cnumpy.core.multiarray
scalar
p1
(cnumpy
dtype
p2
(S'i8'
p3
I0
I1
tp4
Rp5
(I3
S'<'
p6
NNNI-1
I-1
I0
tp7
bS'\x92\x00\x00\x00\x00\x00\x00\x00'
p8
tp9
Rp10
F0.8
tp11
I370
s(g1
(g5
S'|\x00\x00\x00\x00\x00\x00\x00'
p12
tp13
Rp14
F0.39
tp15
I379
s(g1
(g5
S'Z\x00\x00\x00\x00\x00\x00\x00'
p16
tp17
Rp18
F0.0
tp19
I188
s(g1
(g5
S'\x80\x00\x00\x00\x00\x00\x00\x00'
p20
tp21
Rp22
F0.42
tp23
I376
s(g1
(g5
S'\x82\x00\x00\x00\x00\x00\x00\x00'
p24
tp25
Rp26
F1.0
tp27
I370
s(g1
(g5
S'\xaf\x00\x00\x00\x00\x00\x00\x00'
p28
tp29
Rp30
F1.0
tp31
I365
s(g1
(g5
S'\\\x00\x00\x00\x00\x00\x00\x00'
p32
tp33
Rp34
F0.4
tp35
I361
s(g1
(g5
S'\x88\x00\x00\x00\x00\x00\x00\x00'
p36
tp37
Rp38
F0.6
tp39
I375
s(g1
(g5
S'~\x00\x00\x00\x00\x00\x00\x00'
p40
tp41
Rp42
F0.38
tp43
I380
s(g1
(g5
S'\xc3\x00\x00\x00\x00\x00\x00\x00'
p44
tp45
Rp46
F1.0
tp47
I366
s(g1
(g5
S'\x7f\x00\x00\x00\x00\x00\x00\x00'
p48
tp49
Rp50
F0.34
tp51
I378
s(g1
(g5
S'\x0e\x00\x00\x00\x00\x00\x00\x00'
p52
tp53
Rp54
F1.0
tp55
I299
s(g1
(g5
S'}\x00\x00\x00\x00\x00\x00\x00'
p56
tp57
Rp58
F0.35
tp59
I381
s(g1
(g5
S'a\x00\x00\x00\x00\x00\x00\x00'
p60
tp61
Rp62
F0.0
tp63
I188
s(g1
(g5
S'\x18\x00\x00\x00\x00\x00\x00\x00'
p64
tp65
Rp66
F0.4
tp67
I307
s(g1
(g5
S'2\x00\x00\x00\x00\x00\x00\x00'
p68
tp69
Rp70
F1.0
tp71
I339
s(g1
(g5
S'p\x00\x00\x00\x00\x00\x00\x00'
p72
tp73
Rp74
F0.8
tp75
I370
s(g1
(g5
S'z\x00\x00\x00\x00\x00\x00\x00'
p76
tp77
Rp78
F0.2
tp79
I372
s(g1
(g5
S'P\x00\x00\x00\x00\x00\x00\x00'
p80
tp81
Rp82
F0.4
tp83
I355
s(g1
(g5
S'f\x00\x00\x00\x00\x00\x00\x00'
p84
tp85
Rp86
F1.0
tp87
I364
s(g1
(g5
S'y\x00\x00\x00\x00\x00\x00\x00'
p88
tp89
Rp90
F0.43
tp91
I376
s(g1
(g5
S'D\x00\x00\x00\x00\x00\x00\x00'
p92
tp93
Rp94
F0.0
tp95
I188
s(g10
F0.4
tp96
I370
s(g1
(g5
S'\x8d\x00\x00\x00\x00\x00\x00\x00'
p97
tp98
Rp99
F0.6
tp100
I373
s(g46
F0.6
tp101
I367
s(g1
(g5
S'u\x00\x00\x00\x00\x00\x00\x00'
p102
tp103
Rp104
F0.2
tp105
I375
s(g1
(g5
S'F\x00\x00\x00\x00\x00\x00\x00'
p106
tp107
Rp108
F0.4
tp109
I357
s(g1
(g5
S',\x00\x00\x00\x00\x00\x00\x00'
p110
tp111
Rp112
F0.2
tp113
I339
s(g30
F0.4
tp114
I366
s(g1
(g5
S'{\x00\x00\x00\x00\x00\x00\x00'
p115
tp116
Rp117
F0.41
tp118
I376
s(g1
(g5
S'"\x00\x00\x00\x00\x00\x00\x00'
p119
tp120
Rp121
F0.6
tp122
I322
s(g26
F0.4
tp123
I375
s(g54
F0.8
tp124
I300
s(g1
(g5
S':\x00\x00\x00\x00\x00\x00\x00'
p125
tp126
Rp127
F0.8
tp128
I350
s(g1
(g5
S'<\x00\x00\x00\x00\x00\x00\x00'
p129
tp130
Rp131
F0.2
tp132
I349
s(g1
(g5
S'k\x00\x00\x00\x00\x00\x00\x00'
p133
tp134
Rp135
F0.2
tp136
I369
s(g1
(g5
S'z\x00\x00\x00\x00\x00\x00\x00'
p137
tp138
Rp139
F0.41
tp140
I375
s(g1
(g5
S"'\x00\x00\x00\x00\x00\x00\x00"
p141
tp142
Rp143
F0.0
tp144
I188
s(g1
(g5
S'\xa5\x00\x00\x00\x00\x00\x00\x00'
p145
tp146
Rp147
F0.2
tp148
I362
s(g1
(g5
S'\xb9\x00\x00\x00\x00\x00\x00\x00'
p149
tp150
Rp151
F0.4
tp152
I372
s(g135
F0.4
tp153
I369
s(g1
(g5
S'\x7f\x00\x00\x00\x00\x00\x00\x00'
p154
tp155
Rp156
F0.39
tp157
I377
s(g117
F0.39
tp158
I376
s(g38
F0.2
tp159
I373
s(g34
F0.2
tp160
I358
s(g14
F0.38
tp161
I379
s(g1
(g5
S'\n\x00\x00\x00\x00\x00\x00\x00'
p162
tp163
Rp164
F1.0
tp165
I300
s(g1
(g5
S'W\x00\x00\x00\x00\x00\x00\x00'
p166
tp167
Rp168
F0.8
tp169
I359
s(g1
(g5
S'\x14\x00\x00\x00\x00\x00\x00\x00'
p170
tp171
Rp172
F0.2
tp173
I307
s(g1
(g5
S'\x82\x00\x00\x00\x00\x00\x00\x00'
p174
tp175
Rp176
F0.38
tp177
I375
s(g156
F0.42
tp178
I375
s(g1
(g5
S'\x97\x00\x00\x00\x00\x00\x00\x00'
p179
tp180
Rp181
F1.0
tp182
I368
s(g176
F0.39
tp183
I375
s(g1
(g5
S'5\x00\x00\x00\x00\x00\x00\x00'
p184
tp185
Rp186
F0.0
tp187
I188
s(g1
(g5
S'\x8c\x00\x00\x00\x00\x00\x00\x00'
p188
tp189
Rp190
F0.0
tp191
I188
s(g1
(g5
S'd\x00\x00\x00\x00\x00\x00\x00'
p192
tp193
Rp194
F0.8
tp195
I368
s(g1
(g5
S'\x1d\x00\x00\x00\x00\x00\x00\x00'
p196
tp197
Rp198
F0.6
tp199
I312
s(g1
(g5
S'x\x00\x00\x00\x00\x00\x00\x00'
p200
tp201
Rp202
F0.43
tp203
I375
s(g139
F0.37
tp204
I377
s(g194
F0.0
tp205
I188
s(g1
(g5
S'\x1e\x00\x00\x00\x00\x00\x00\x00'
p206
tp207
Rp208
F0.2
tp209
I306
s(g139
F0.42
tp210
I374
s(g90
F0.37
tp211
I379
s(g1
(g5
S'|\x00\x00\x00\x00\x00\x00\x00'
p212
tp213
Rp214
F0.34
tp215
I379
s(g82
F0.8
tp216
I357
s(g186
F0.2
tp217
I339
s(g135
F1.0
tp218
I368
s(g1
(g5
S'\xa1\x00\x00\x00\x00\x00\x00\x00'
p219
tp220
Rp221
F0.8
tp222
I363
s(g131
F0.0
tp223
I188
s(g1
(g5
S'y\x00\x00\x00\x00\x00\x00\x00'
p224
tp225
Rp226
F0.36
tp227
I378
s(g70
F0.6
tp228
I340
s(g38
F1.0
tp229
I373
s(g99
F0.4
tp230
I373
s(g194
F0.6
tp231
I368
s(g1
(g5
S'\x81\x00\x00\x00\x00\x00\x00\x00'
p232
tp233
Rp234
F0.33
tp235
I376
s(g147
F1.0
tp236
I360
s(g202
F0.38
tp237
I377
s(g1
(g5
S'\x80\x00\x00\x00\x00\x00\x00\x00'
p238
tp239
Rp240
F0.35
tp241
I378
s(g172
F1.0
tp242
I305
s(g42
F0.39
tp243
I379
s(g26
F0.2
tp244
I372
s(g26
F0.6
tp245
I375
s(g168
F0.4
tp246
I358
s(g82
F0.6
tp247
I357
s(g108
F0.2
tp248
I351
s(g151
F0.8
tp249
I371
s(g1
(g5
S'{\x00\x00\x00\x00\x00\x00\x00'
p250
tp251
Rp252
F0.34
tp253
I376
s(g94
F0.6
tp254
I357
s(g1
(g5
S'}\x00\x00\x00\x00\x00\x00\x00'
p255
tp256
Rp257
F0.42
tp258
I378
s(g151
F0.2
tp259
I373
s(g221
F0.0
tp260
I188
s(g117
F0.43
tp261
I375
s(g1
(g5
S'~\x00\x00\x00\x00\x00\x00\x00'
p262
tp263
Rp264
F0.0
tp265
I188
s(g74
F0.4
tp266
I369
s(g257
F0.37
tp267
I382
s(g127
F0.2
tp268
I353
s(g127
F0.4
tp269
I352
s(g1
(g5
S'\xa0\x00\x00\x00\x00\x00\x00\x00'
p270
tp271
Rp272
F0.4
tp273
I365
s(g121
F1.0
tp274
I321
s(g1
(g5
S'z\x00\x00\x00\x00\x00\x00\x00'
p275
tp276
Rp277
F0.36
tp278
I376
s(g1
(g5
S'~\x00\x00\x00\x00\x00\x00\x00'
p279
tp280
Rp281
F0.35
tp282
I381
s(g42
F0.42
tp283
I377
s(g1
(g5
S'n\x00\x00\x00\x00\x00\x00\x00'
p284
tp285
Rp286
F0.0
tp287
I188
s(g42
F0.41
tp288
I378
s(g78
F1.0
tp289
I373
s(g1
(g5
S'x\x00\x00\x00\x00\x00\x00\x00'
p290
tp291
Rp292
F0.35
tp293
I378
s(g214
F0.33
tp294
I378
s(g257
F0.39
tp295
I380
s(g1
(g5
S'\xb4\x00\x00\x00\x00\x00\x00\x00'
p296
tp297
Rp298
F1.0
tp299
I367
s(g164
F0.6
tp300
I300
s(g176
F0.41
tp301
I375
s(g131
F0.6
tp302
I350
s(g1
(g5
S'I\x00\x00\x00\x00\x00\x00\x00'
p303
tp304
Rp305
F0.4
tp306
I356
s(g143
F0.8
tp307
I328
s(g10
F0.0
tp308
I188
s(g156
F0.37
tp309
I379
s(g1
(g5
S'0\x00\x00\x00\x00\x00\x00\x00'
p310
tp311
Rp312
F1.0
tp313
I342
s(g1
(g5
S'x\x00\x00\x00\x00\x00\x00\x00'
p314
tp315
Rp316
F0.6
tp317
I376
s(g90
F0.41
tp318
I377
s(g194
F1.0
tp319
I366
s(g1
(g5
S'\x82\x00\x00\x00\x00\x00\x00\x00'
p320
tp321
Rp322
F0.33
tp323
I375
s(g208
F0.0
tp324
I188
s(g139
F0.43
tp325
I374
s(g131
F0.8
tp326
I351
s(g281
F0.34
tp327
I380
s(g62
F0.2
tp328
I364
s(g78
F0.8
tp329
I375
s(g214
F0.35
tp330
I380
s(g1
(g5
S'\xbe\x00\x00\x00\x00\x00\x00\x00'
p331
tp332
Rp333
F0.2
tp334
I373
s(g305
F0.0
tp335
I188
s(g272
F0.0
tp336
I188
s(g202
F0.39
tp337
I377
s(g74
F0.2
tp338
I367
s(g316
F0.8
tp339
I376
s(g1
(g5
S'N\x00\x00\x00\x00\x00\x00\x00'
p340
tp341
Rp342
F1.0
tp343
I353
s(g322
F0.35
tp344
I376
s(g1
(g5
S'?\x00\x00\x00\x00\x00\x00\x00'
p345
tp346
Rp347
F1.0
tp348
I355
s(g198
F0.2
tp349
I310
s(g117
F0.38
tp350
I376
s(g139
F0.38
tp351
I375
s(g112
F0.0
tp352
I188
s(g1
(g5
S'\x83\x00\x00\x00\x00\x00\x00\x00'
p353
tp354
Rp355
F0.0
tp356
I188
s(g112
F0.8
tp357
I335
s(g286
F0.6
tp358
I371
s(g82
F0.0
tp359
I188
s(g104
F0.4
tp360
I377
s(g198
F0.8
tp361
I313
s(g127
F0.6
tp362
I349
s(g1
(g5
S'\x81\x00\x00\x00\x00\x00\x00\x00'
p363
tp364
Rp365
F0.38
tp366
I376
s(g194
F0.4
tp367
I369
s(g1
(g5
S'\x96\x00\x00\x00\x00\x00\x00\x00'
p368
tp369
Rp370
F0.4
tp371
I372
s(g342
F0.8
tp372
I354
s(g151
F1.0
tp373
I369
s(g66
F0.6
tp374
I305
s(g365
F0.37
tp375
I378
s(g18
F0.6
tp376
I358
s(g333
F0.0
tp377
I188
s(g172
F0.8
tp378
I306
s(g1
(g5
S'(\x00\x00\x00\x00\x00\x00\x00'
p379
tp380
Rp381
F1.0
tp382
I327
s(g34
F1.0
tp383
I355
s(g117
F0.37
tp384
I378
s(g186
F0.8
tp385
I336
s(g104
F0.6
tp386
I376
s(g1
(g5
S'\x9c\x00\x00\x00\x00\x00\x00\x00'
p387
tp388
Rp389
F0.6
tp390
I368
s(g26
F0.8
tp391
I373
s(g127
F0.0
tp392
I188
s(g1
(g5
S'\xaa\x00\x00\x00\x00\x00\x00\x00'
p393
tp394
Rp395
F0.2
tp396
I365
s(g135
F0.8
tp397
I370
s(g370
F1.0
tp398
I369
s(g277
F0.35
tp399
I376
s(g172
F0.4
tp400
I307
s(g198
F0.0
tp401
I188
s(g186
F0.6
tp402
I337
s(g104
F0.0
tp403
I188
s(g108
F1.0
tp404
I356
s(g147
F0.4
tp405
I363
s(g176
F0.42
tp406
I374
s(g1
(g5
S'S\x00\x00\x00\x00\x00\x00\x00'
p407
tp408
Rp409
F1.0
tp410
I357
s(g298
F0.8
tp411
I368
s(g226
F0.34
tp412
I377
s(g221
F0.6
tp413
I363
s(g86
F0.4
tp414
I368
s(g395
F0.4
tp415
I362
s(g30
F0.0
tp416
I188
s(g99
F1.0
tp417
I371
s(g409
F0.4
tp418
I358
s(g1
(g5
S'\xc8\x00\x00\x00\x00\x00\x00\x00'
p419
tp420
Rp421
F1.0
tp422
I364
s(g112
F0.6
tp423
I336
s(g26
F0.0
tp424
I188
s(g58
F0.36
tp425
I381
s(g333
F0.8
tp426
I369
s(g164
F0.4
tp427
I300
s(g316
F0.4
tp428
I377
s(g54
F0.0
tp429
I188
s(g316
F1.0
tp430
I375
s(g281
F0.33
tp431
I379
s(g62
F1.0
tp432
I362
s(g264
F0.4
tp433
I379
s(g70
F0.0
tp434
I188
s(g30
F0.8
tp435
I365
s(g139
F0.39
tp436
I375
s(g86
F0.8
tp437
I366
s(g86
F0.0
tp438
I188
s(g208
F0.4
tp439
I312
s(g395
F0.8
tp440
I361
s(g257
F0.38
tp441
I380
s(g370
F0.2
tp442
I371
s(g355
F0.2
tp443
I373
s(g389
F0.2
tp444
I368
s(g234
F0.36
tp445
I377
s(g58
F0.33
tp446
I379
s(g14
F0.37
tp447
I381
s(g143
F1.0
tp448
I327
s(g305
F0.8
tp449
I355
s(g22
F0.41
tp450
I377
s(g54
F0.4
tp451
I301
s(g347
F0.8
tp452
I357
s(g281
F0.36
tp453
I381
s(g347
F0.4
tp454
I358
s(g121
F0.8
tp455
I322
s(g389
F1.0
tp456
I366
s(g421
F0.8
tp457
I365
s(g202
F0.37
tp458
I379
s(g34
F0.6
tp459
I360
s(g365
F0.42
tp460
I375
s(g168
F0.0
tp461
I188
s(g66
F1.0
tp462
I306
s(g208
F0.6
tp463
I311
s(g322
F0.34
tp464
I376
s(g186
F1.0
tp465
I335
s(g190
F0.4
tp466
I373
s(g74
F1.0
tp467
I368
s(g14
F0.41
tp468
I378
s(g90
F0.38
tp469
I377
s(g277
F0.33
tp470
I375
s(g172
F0.6
tp471
I304
s(g112
F0.4
tp472
I337
s(g409
F0.6
tp473
I360
s(g395
F1.0
tp474
I360
s(g322
F0.36
tp475
I376
s(g181
F0.8
tp476
I370
s(g22
F0.43
tp477
I376
s(g50
F0.33
tp478
I377
s(g62
F0.6
tp479
I363
s(g147
F0.6
tp480
I362
s(g38
F0.0
tp481
I188
s(g176
F0.37
tp482
I377
s(g46
F0.4
tp483
I366
s(g94
F0.8
tp484
I356
s(g312
F0.8
tp485
I343
s(g355
F0.6
tp486
I377
s(g18
F1.0
tp487
I353
s(g342
F0.2
tp488
I351
s(g257
F0.43
tp489
I378
s(g1
(g5
S'\x13\x00\x00\x00\x00\x00\x00\x00'
p490
tp491
Rp492
F0.6
tp493
I307
s(g252
F0.36
tp494
I377
s(g94
F0.2
tp495
I349
s(g46
F0.0
tp496
I188
s(g181
F0.6
tp497
I370
s(g277
F0.34
tp498
I375
s(g221
F1.0
tp499
I363
s(g234
F0.35
tp500
I377
s(g18
F0.2
tp501
I356
s(g492
F0.8
tp502
I308
s(g54
F0.2
tp503
I299
s(g66
F0.8
tp504
I306
s(g492
F0.2
tp505
I307
s(g342
F0.6
tp506
I354
s(g381
F0.2
tp507
I326
s(g94
F1.0
tp508
I353
s(g74
F0.6
tp509
I370
s(g298
F0.6
tp510
I368
s(g312
F0.2
tp511
I344
s(g389
F0.8
tp512
I367
s(g121
F0.0
tp513
I188
s(g181
F0.4
tp514
I371
s(g78
F0.0
tp515
I188
s(g172
F0.0
tp516
I188
s(g42
F0.37
tp517
I382
s(g316
F0.2
tp518
I372
s(g365
F0.41
tp519
I376
s(g30
F0.6
tp520
I365
s(g240
F0.33
tp521
I377
s(g298
F0.0
tp522
I188
s(g214
F0.36
tp523
I380
s(g14
F0.43
tp524
I377
s(g82
F0.2
tp525
I355
s(g108
F0.8
tp526
I358
s(g143
F0.6
tp527
I328
s(g151
F0.6
tp528
I371
s(g131
F0.4
tp529
I352
s(g312
F0.0
tp530
I188
s(g181
F0.0
tp531
I188
s(g298
F0.4
tp532
I369
s(g66
F0.2
tp533
I309
s(g86
F0.6
tp534
I366
s(g286
F0.2
tp535
I368
s(g164
F0.8
tp536
I301
s(g190
F1.0
tp537
I372
s(g46
F0.8
tp538
I367
s(g292
F0.33
tp539
I377
s(g168
F1.0
tp540
I356
s(g121
F0.2
tp541
I315
s(g492
F0.0
tp542
I188
s(g164
F0.2
tp543
I296
s(g58
F0.34
tp544
I380
s(g22
F0.39
tp545
I377
s(g143
F0.2
tp546
I326
s(g135
F0.0
tp547
I188
s(g131
F1.0
tp548
I350
s(g264
F0.8
tp549
I377
s(g240
F0.36
tp550
I378
s(g305
F1.0
tp551
I353
s(g381
F0.6
tp552
I328
s(g190
F0.6
tp553
I373
s(g22
F0.37
tp554
I379
s(g342
F0.0
tp555
I188
s(g147
F0.0
tp556
I188
s(g381
F0.8
tp557
I328
s(g365
F0.43
tp558
I375
s(g156
F0.43
tp559
I375
s(g492
F1.0
tp560
I307
s(g409
F0.2
tp561
I355
s(g421
F0.6
tp562
I365
s(g355
F1.0
tp563
I373
s(g70
F0.8
tp564
I340
s(g370
F0.8
tp565
I371
s(g62
F0.4
tp566
I363
s(g14
F0.42
tp567
I377
s(g208
F0.8
tp568
I311
s(g305
F0.6
tp569
I356
s(g365
F0.39
tp570
I376
s(g347
F0.2
tp571
I356
s(g190
F0.8
tp572
I373
s(g221
F0.4
tp573
I364
s(g168
F0.6
tp574
I359
s(g264
F1.0
tp575
I376
s(g78
F0.4
tp576
I375
s(g492
F0.4
tp577
I309
s(g409
F0.8
tp578
I360
s(g381
F0.0
tp579
I188
s(g370
F0.0
tp580
I188
s(g34
F0.0
tp581
I188
s(g333
F0.4
tp582
I370
s(g121
F0.4
tp583
I323
s(g117
F0.42
tp584
I375
s(g70
F0.2
tp585
I339
s(g156
F0.38
tp586
I377
s(g347
F0.0
tp587
I188
s(g78
F0.6
tp588
I375
s(g333
F0.6
tp589
I369
s(g10
F0.6
tp590
I369
s(g50
F0.35
tp591
I378
s(g421
F0.2
tp592
I372
s(g226
F0.33
tp593
I377
s(g198
F1.0
tp594
I312
s(g221
F0.2
tp595
I364
s(g190
F0.2
tp596
I371
s(g94
F0.4
tp597
I356
s(g104
F1.0
tp598
I375
s(g108
F0.0
tp599
I188
s(g286
F0.8
tp600
I371
s(g292
F0.36
tp601
I378
s(g38
F0.4
tp602
I374
s(g381
F0.4
tp603
I329
s(g181
F0.2
tp604
I372
s(g10
F1.0
tp605
I368
s(g143
F0.4
tp606
I330
s(g292
F0.34
tp607
I377
s(g186
F0.4
tp608
I337
s(g342
F0.4
tp609
I353
s(g202
F0.41
tp610
I377
s(g272
F0.6
tp611
I364
s(g208
F1.0
tp612
I310
s(g264
F0.2
tp613
I373
s(g234
F0.34
tp614
I377
s(g421
F0.0
tp615
I188
s(g90
F0.42
tp616
I376
s(g18
F0.8
tp617
I356
s(g34
F0.8
tp618
I358
s(g62
F0.8
tp619
I363
s(g272
F0.8
tp620
I364
s(g370
F0.6
tp621
I372
s(g316
F0.0
tp622
I188
s(g272
F1.0
tp623
I364
s(g198
F0.4
tp624
I313
s(g355
F0.8
tp625
I375
s(g90
F0.39
tp626
I377
s(g252
F0.35
tp627
I377
s(g42
F0.43
tp628
I377
s(g156
F0.41
tp629
I376
s(g252
F0.33
tp630
I376
s(g50
F0.36
tp631
I378
s(g108
F0.6
tp632
I358
s(g99
F0.8
tp633
I373
s(g112
F1.0
tp634
I334
s(g30
F0.2
tp635
I368
s(g389
F0.4
tp636
I369
s(g82
F1.0
tp637
I355
s(g54
F0.6
tp638
I300
s(g240
F0.34
tp639
I378
s(g298
F0.2
tp640
I371
s(g164
F0.0
tp641
I188
s(g312
F0.6
tp642
I343
s(g395
F0.6
tp643
I362
s(g151
F0.0
tp644
I188
s(g421
F0.4
tp645
I365
s(g286
F0.4
tp646
I370
s(g333
F1.0
tp647
I367
s(g86
F0.2
tp648
I367
s(g389
F0.0
tp649
I188
s(g18
F0.4
tp650
I359
s(g135
F0.6
tp651
I369
s(g312
F0.4
tp652
I345
s(g127
F1.0
tp653
I349
s(g22
F0.38
tp654
I377
s(g347
F0.6
tp655
I356
s(g104
F0.8
tp656
I376
s(g286
F1.0
tp657
I369
s(g46
F0.2
tp658
I371
s(g38
F0.8
tp659
I375
s(g66
F0.0
tp660
I188
s(g168
F0.2
tp661
I355
s(g305
F0.2
tp662
I353
s(g264
F0.6
tp663
I378
s(g226
F0.35
tp664
I378
s(g176
F0.43
tp665
I374
s(g74
F0.0
tp666
I188
s(g355
F0.4
tp667
I377
s(g257
F0.41
tp668
I379
s(g202
F0.42
tp669
I376
s(g409
F0.0
tp670
I188
s(g395
F0.0
tp671
I188
s(g194
F0.2
tp672
I368
s(g99
F0.2
tp673
I371
s(g70
F0.4
tp674
I341
s(g10
F0.2
tp675
I369
s(g147
F0.8
tp676
I361
s(g272
F0.2
tp677
I364
s(g99
F0.0
tp678
I188
s.