(dp0
(cnumpy.core.multiarray
scalar
p1
(cnumpy
dtype
p2
(S'i8'
p3
I0
I1
tp4
Rp5
(I3
S'<'
p6
NNNI-1
I-1
I0
tp7
bS'\xb9\x00\x00\x00\x00\x00\x00\x00'
p8
tp9
Rp10
F0.22
tp11
I52
s(g1
(g5
S'5\x00\x00\x00\x00\x00\x00\x00'
p12
tp13
Rp14
F0.24
tp15
I52
s(g1
(g5
S'\xb4\x00\x00\x00\x00\x00\x00\x00'
p16
tp17
Rp18
F0.19
tp19
I52
s(g1
(g5
S'|\x00\x00\x00\x00\x00\x00\x00'
p20
tp21
Rp22
F0.16
tp23
I53
s(g1
(g5
S'3\x00\x00\x00\x00\x00\x00\x00'
p24
tp25
Rp26
F0.2
tp27
I52
s(g1
(g5
S'\x0f\x00\x00\x00\x00\x00\x00\x00'
p28
tp29
Rp30
F0.19
tp31
I37
s(g1
(g5
S'Z\x00\x00\x00\x00\x00\x00\x00'
p32
tp33
Rp34
F0.0
tp35
I18
s(g1
(g5
S'K\x00\x00\x00\x00\x00\x00\x00'
p36
tp37
Rp38
F0.23
tp39
I51
s(g1
(g5
S'P\x00\x00\x00\x00\x00\x00\x00'
p40
tp41
Rp42
F0.18
tp43
I52
s(g1
(g5
S'\x94\x00\x00\x00\x00\x00\x00\x00'
p44
tp45
Rp46
F0.16
tp47
I53
s(g1
(g5
S'\x0f\x00\x00\x00\x00\x00\x00\x00'
p48
tp49
Rp50
F0.4
tp51
I38
s(g1
(g5
S'F\x00\x00\x00\x00\x00\x00\x00'
p52
tp53
Rp54
F0.18
tp55
I52
s(g1
(g5
S'\xc3\x00\x00\x00\x00\x00\x00\x00'
p56
tp57
Rp58
F0.23
tp59
I51
s(g1
(g5
S'0\x00\x00\x00\x00\x00\x00\x00'
p60
tp61
Rp62
F0.19
tp63
I51
s(g1
(g5
S'\x0e\x00\x00\x00\x00\x00\x00\x00'
p64
tp65
Rp66
F0.1
tp67
I37
s(g1
(g5
S'\xa0\x00\x00\x00\x00\x00\x00\x00'
p68
tp69
Rp70
F0.3
tp71
I52
s(g1
(g5
S'\x91\x00\x00\x00\x00\x00\x00\x00'
p72
tp73
Rp74
F0.24
tp75
I52
s(g1
(g5
S'\\\x00\x00\x00\x00\x00\x00\x00'
p76
tp77
Rp78
F0.2
tp79
I52
s(g1
(g5
S'i\x00\x00\x00\x00\x00\x00\x00'
p80
tp81
Rp82
F0.3
tp83
I52
s(g38
F0.17
tp84
I52
s(g1
(g5
S'd\x00\x00\x00\x00\x00\x00\x00'
p85
tp86
Rp87
F0.4
tp88
I51
s(g1
(g5
S'+\x00\x00\x00\x00\x00\x00\x00'
p89
tp90
Rp91
F0.2
tp92
I51
s(g1
(g5
S'\xaf\x00\x00\x00\x00\x00\x00\x00'
p93
tp94
Rp95
F0.22
tp96
I52
s(g1
(g5
S'\x88\x00\x00\x00\x00\x00\x00\x00'
p97
tp98
Rp99
F0.15
tp100
I52
s(g1
(g5
S'\x9b\x00\x00\x00\x00\x00\x00\x00'
p101
tp102
Rp103
F0.21
tp104
I53
s(g1
(g5
S'N\x00\x00\x00\x00\x00\x00\x00'
p105
tp106
Rp107
F0.0
tp108
I18
s(g1
(g5
S'0\x00\x00\x00\x00\x00\x00\x00'
p109
tp110
Rp111
F0.13
tp112
I49
s(g1
(g5
S'\x7f\x00\x00\x00\x00\x00\x00\x00'
p113
tp114
Rp115
F0.17
tp116
I53
s(g1
(g5
S'\x19\x00\x00\x00\x00\x00\x00\x00'
p117
tp118
Rp119
F0.25
tp120
I44
s(g1
(g5
S'\xa0\x00\x00\x00\x00\x00\x00\x00'
p121
tp122
Rp123
F0.18
tp124
I53
s(g1
(g5
S'\x96\x00\x00\x00\x00\x00\x00\x00'
p125
tp126
Rp127
F0.45
tp128
I51
s(g1
(g5
S';\x00\x00\x00\x00\x00\x00\x00'
p129
tp130
Rp131
F0.21
tp132
I52
s(g1
(g5
S'\xbe\x00\x00\x00\x00\x00\x00\x00'
p133
tp134
Rp135
F0.5
tp136
I50
s(g1
(g5
S'\x14\x00\x00\x00\x00\x00\x00\x00'
p137
tp138
Rp139
F0.23
tp140
I39
s(g1
(g5
S'A\x00\x00\x00\x00\x00\x00\x00'
p141
tp142
Rp143
F0.23
tp144
I50
s(g34
F0.25
tp145
I51
s(g1
(g5
S'v\x00\x00\x00\x00\x00\x00\x00'
p146
tp147
Rp148
F0.14
tp149
I51
s(g1
(g5
S'}\x00\x00\x00\x00\x00\x00\x00'
p150
tp151
Rp152
F0.35
tp153
I52
s(g1
(g5
S'a\x00\x00\x00\x00\x00\x00\x00'
p154
tp155
Rp156
F0.0
tp157
I18
s(g1
(g5
S'P\x00\x00\x00\x00\x00\x00\x00'
p158
tp159
Rp160
F0.15
tp161
I51
s(g1
(g5
S'\x1e\x00\x00\x00\x00\x00\x00\x00'
p162
tp163
Rp164
F0.16
tp165
I47
s(g1
(g5
S'p\x00\x00\x00\x00\x00\x00\x00'
p166
tp167
Rp168
F0.05
tp169
I44
s(g131
F0.19
tp170
I52
s(g1
(g5
S':\x00\x00\x00\x00\x00\x00\x00'
p171
tp172
Rp173
F0.19
tp174
I53
s(g1
(g5
S'/\x00\x00\x00\x00\x00\x00\x00'
p175
tp176
Rp177
F0.18
tp178
I51
s(g160
F0.1
tp179
I47
s(g1
(g5
S'1\x00\x00\x00\x00\x00\x00\x00'
p180
tp181
Rp182
F0.16
tp183
I51
s(g1
(g5
S'\x19\x00\x00\x00\x00\x00\x00\x00'
p184
tp185
Rp186
F0.21
tp187
I45
s(g1
(g5
S'\x18\x00\x00\x00\x00\x00\x00\x00'
p188
tp189
Rp190
F0.3
tp191
I42
s(g1
(g5
S'_\x00\x00\x00\x00\x00\x00\x00'
p192
tp193
Rp194
F0.17
tp195
I52
s(g82
F0.05
tp196
I43
s(g1
(g5
S'\x82\x00\x00\x00\x00\x00\x00\x00'
p197
tp198
Rp199
F0.22
tp200
I53
s(g103
F0.17
tp201
I53
s(g1
(g5
S',\x00\x00\x00\x00\x00\x00\x00'
p202
tp203
Rp204
F0.12
tp205
I47
s(g1
(g5
S'\x96\x00\x00\x00\x00\x00\x00\x00'
p206
tp207
Rp208
F0.18
tp209
I53
s(g111
F0.14
tp210
I49
s(g1
(g5
S'\xb4\x00\x00\x00\x00\x00\x00\x00'
p211
tp212
Rp213
F0.45
tp214
I50
s(g22
F0.14
tp215
I51
s(g194
F0.16
tp216
I52
s(g42
F0.23
tp217
I51
s(g1
(g5
S'A\x00\x00\x00\x00\x00\x00\x00'
p218
tp219
Rp220
F0.4
tp221
I50
s(g1
(g5
S'D\x00\x00\x00\x00\x00\x00\x00'
p222
tp223
Rp224
F0.0
tp225
I18
s(g1
(g5
S'(\x00\x00\x00\x00\x00\x00\x00'
p226
tp227
Rp228
F0.35
tp229
I49
s(g1
(g5
S'\x92\x00\x00\x00\x00\x00\x00\x00'
p230
tp231
Rp232
F0.1
tp233
I48
s(g1
(g5
S'\x8d\x00\x00\x00\x00\x00\x00\x00'
p234
tp235
Rp236
F0.15
tp237
I52
s(g199
F0.24
tp238
I52
s(g1
(g5
S'\xc3\x00\x00\x00\x00\x00\x00\x00'
p239
tp240
Rp241
F0.15
tp242
I51
s(g91
F0.16
tp243
I51
s(g1
(g5
S'7\x00\x00\x00\x00\x00\x00\x00'
p244
tp245
Rp246
F0.22
tp247
I53
s(g1
(g5
S'\x14\x00\x00\x00\x00\x00\x00\x00'
p248
tp249
Rp250
F0.4
tp251
I38
s(g1
(g5
S'<\x00\x00\x00\x00\x00\x00\x00'
p252
tp253
Rp254
F0.22
tp255
I52
s(g1
(g5
S'u\x00\x00\x00\x00\x00\x00\x00'
p256
tp257
Rp258
F0.05
tp259
I44
s(g1
(g5
S'F\x00\x00\x00\x00\x00\x00\x00'
p260
tp261
Rp262
F0.2
tp263
I52
s(g1
(g5
S'*\x00\x00\x00\x00\x00\x00\x00'
p264
tp265
Rp266
F0.15
tp267
I49
s(g42
F0.24
tp268
I51
s(g34
F0.15
tp269
I51
s(g246
F0.19
tp270
I53
s(g1
(g5
S"'\x00\x00\x00\x00\x00\x00\x00"
p271
tp272
Rp273
F0.3
tp274
I49
s(g1
(g5
S'\xaf\x00\x00\x00\x00\x00\x00\x00'
p275
tp276
Rp277
F0.2
tp278
I52
s(g1
(g5
S'"\x00\x00\x00\x00\x00\x00\x00'
p279
tp280
Rp281
F0.3
tp282
I48
s(g1
(g5
S'\x82\x00\x00\x00\x00\x00\x00\x00'
p283
tp284
Rp285
F0.1
tp286
I48
s(g1
(g5
S'\x97\x00\x00\x00\x00\x00\x00\x00'
p287
tp288
Rp289
F0.1
tp290
I48
s(g1
(g5
S'-\x00\x00\x00\x00\x00\x00\x00'
p291
tp292
Rp293
F0.22
tp294
I51
s(g1
(g5
S'<\x00\x00\x00\x00\x00\x00\x00'
p295
tp296
Rp297
F0.2
tp298
I52
s(g1
(g5
S'k\x00\x00\x00\x00\x00\x00\x00'
p299
tp300
Rp301
F0.05
tp302
I43
s(g1
(g5
S'2\x00\x00\x00\x00\x00\x00\x00'
p303
tp304
Rp305
F0.22
tp306
I52
s(g1
(g5
S'p\x00\x00\x00\x00\x00\x00\x00'
p307
tp308
Rp309
F0.16
tp310
I53
s(g1
(g5
S'(\x00\x00\x00\x00\x00\x00\x00'
p311
tp312
Rp313
F0.0
tp314
I18
s(g54
F0.22
tp315
I52
s(g273
F0.0
tp316
I18
s(g1
(g5
S'\xc8\x00\x00\x00\x00\x00\x00\x00'
p317
tp318
Rp319
F0.5
tp320
I50
s(g1
(g5
S'\xaa\x00\x00\x00\x00\x00\x00\x00'
p321
tp322
Rp323
F0.22
tp324
I52
s(g1
(g5
S'\xa5\x00\x00\x00\x00\x00\x00\x00'
p325
tp326
Rp327
F0.1
tp328
I47
s(g1
(g5
S'\xb9\x00\x00\x00\x00\x00\x00\x00'
p329
tp330
Rp331
F0.1
tp332
I47
s(g1
(g5
S'\xbe\x00\x00\x00\x00\x00\x00\x00'
p333
tp334
Rp335
F0.16
tp336
I52
s(g301
F0.1
tp337
I47
s(g1
(g5
S'K\x00\x00\x00\x00\x00\x00\x00'
p338
tp339
Rp340
F0.25
tp341
I51
s(g148
F0.16
tp342
I53
s(g1
(g5
S'8\x00\x00\x00\x00\x00\x00\x00'
p343
tp344
Rp345
F0.21
tp346
I53
s(g331
F0.3
tp347
I51
s(g241
F0.05
tp348
I43
s(g1
(g5
S'\xc8\x00\x00\x00\x00\x00\x00\x00'
p349
tp350
Rp351
F0.23
tp352
I51
s(g1
(g5
S'+\x00\x00\x00\x00\x00\x00\x00'
p353
tp354
Rp355
F0.11
tp356
I47
s(g1
(g5
S'9\x00\x00\x00\x00\x00\x00\x00'
p357
tp358
Rp359
F0.11
tp360
I48
s(g1
(g5
S'#\x00\x00\x00\x00\x00\x00\x00'
p361
tp362
Rp363
F0.22
tp364
I48
s(g1
(g5
S's\x00\x00\x00\x00\x00\x00\x00'
p365
tp366
Rp367
F0.22
tp368
I53
s(g1
(g5
S'z\x00\x00\x00\x00\x00\x00\x00'
p369
tp370
Rp371
F0.3
tp372
I52
s(g1
(g5
S'\xbe\x00\x00\x00\x00\x00\x00\x00'
p373
tp374
Rp375
F0.0
tp376
I18
s(g1
(g5
S'\x87\x00\x00\x00\x00\x00\x00\x00'
p377
tp378
Rp379
F0.19
tp380
I53
s(g1
(g5
S'U\x00\x00\x00\x00\x00\x00\x00'
p381
tp382
Rp383
F0.35
tp384
I52
s(g1
(g5
S'}\x00\x00\x00\x00\x00\x00\x00'
p385
tp386
Rp387
F0.23
tp388
I52
s(g78
F0.3
tp389
I51
s(g250
F0.5
tp390
I38
s(g99
F0.2
tp391
I53
s(g1
(g5
S'*\x00\x00\x00\x00\x00\x00\x00'
p392
tp393
Rp394
F0.17
tp395
I50
s(g383
F0.0
tp396
I18
s(g355
F0.13
tp397
I48
s(g1
(g5
S'x\x00\x00\x00\x00\x00\x00\x00'
p398
tp399
Rp400
F0.18
tp401
I53
s(g78
F0.05
tp402
I43
s(g400
F0.24
tp403
I52
s(g1
(g5
S'0\x00\x00\x00\x00\x00\x00\x00'
p404
tp405
Rp406
F0.25
tp407
I50
s(g186
F0.24
tp408
I44
s(g82
F0.15
tp409
I51
s(g1
(g5
S'Z\x00\x00\x00\x00\x00\x00\x00'
p410
tp411
Rp412
F0.22
tp413
I52
s(g289
F0.25
tp414
I52
s(g383
F0.3
tp415
I52
s(g1
(g5
S'y\x00\x00\x00\x00\x00\x00\x00'
p416
tp417
Rp418
F0.14
tp419
I51
s(g1
(g5
S'i\x00\x00\x00\x00\x00\x00\x00'
p420
tp421
Rp422
F0.21
tp423
I52
s(g266
F0.12
tp424
I47
s(g1
(g5
S'\x88\x00\x00\x00\x00\x00\x00\x00'
p425
tp426
Rp427
F0.16
tp428
I53
s(g1
(g5
S'\xc8\x00\x00\x00\x00\x00\x00\x00'
p429
tp430
Rp431
F0.0
tp432
I18
s(g1
(g5
S'9\x00\x00\x00\x00\x00\x00\x00'
p433
tp434
Rp435
F0.16
tp436
I53
s(g1
(g5
S's\x00\x00\x00\x00\x00\x00\x00'
p437
tp438
Rp439
F0.45
tp440
I51
s(g95
F0.18
tp441
I52
s(g1
(g5
S':\x00\x00\x00\x00\x00\x00\x00'
p442
tp443
Rp444
F0.14
tp445
I51
s(g1
(g5
S'\x14\x00\x00\x00\x00\x00\x00\x00'
p446
tp447
Rp448
F0.2
tp449
I40
s(g18
F0.18
tp450
I52
s(g1
(g5
S'_\x00\x00\x00\x00\x00\x00\x00'
p451
tp452
Rp453
F0.35
tp454
I51
s(g199
F0.19
tp455
I53
s(g1
(g5
S'\xa5\x00\x00\x00\x00\x00\x00\x00'
p456
tp457
Rp458
F0.45
tp459
I50
s(g323
F0.21
tp460
I52
s(g1
(g5
S'n\x00\x00\x00\x00\x00\x00\x00'
p461
tp462
Rp463
F0.14
tp464
I51
s(g1
(g5
S'3\x00\x00\x00\x00\x00\x00\x00'
p465
tp466
Rp467
F0.15
tp468
I51
s(g50
F0.5
tp469
I38
s(g1
(g5
S'f\x00\x00\x00\x00\x00\x00\x00'
p470
tp471
Rp472
F0.3
tp473
I52
s(g1
(g5
S'.\x00\x00\x00\x00\x00\x00\x00'
p474
tp475
Rp476
F0.2
tp477
I51
s(g1
(g5
S'\xa1\x00\x00\x00\x00\x00\x00\x00'
p478
tp479
Rp480
F0.25
tp481
I52
s(g1
(g5
S'\x82\x00\x00\x00\x00\x00\x00\x00'
p482
tp483
Rp484
F0.5
tp485
I51
s(g50
F0.3
tp486
I36
s(g1
(g5
S'\x8c\x00\x00\x00\x00\x00\x00\x00'
p487
tp488
Rp489
F0.24
tp490
I52
s(g1
(g5
S'5\x00\x00\x00\x00\x00\x00\x00'
p491
tp492
Rp493
F0.0
tp494
I18
s(g1
(g5
S'\x8c\x00\x00\x00\x00\x00\x00\x00'
p495
tp496
Rp497
F0.0
tp498
I18
s(g1
(g5
S'/\x00\x00\x00\x00\x00\x00\x00'
p499
tp500
Rp501
F0.15
tp502
I50
s(g99
F0.3
tp503
I52
s(g1
(g5
S'\xb9\x00\x00\x00\x00\x00\x00\x00'
p504
tp505
Rp506
F0.4
tp507
I50
s(g139
F0.24
tp508
I39
s(g74
F0.18
tp509
I53
s(g1
(g5
S'd\x00\x00\x00\x00\x00\x00\x00'
p510
tp511
Rp512
F0.05
tp513
I43
s(g1
(g5
S'\x1d\x00\x00\x00\x00\x00\x00\x00'
p514
tp515
Rp516
F0.3
tp517
I47
s(g164
F0.22
tp518
I47
s(g1
(g5
S'\n\x00\x00\x00\x00\x00\x00\x00'
p519
tp520
Rp521
F0.19
tp522
I38
s(g250
F0.45
tp523
I38
s(g1
(g5
S'd\x00\x00\x00\x00\x00\x00\x00'
p524
tp525
Rp526
F0.18
tp527
I52
s(g512
F0.0
tp528
I18
s(g177
F0.17
tp529
I51
s(g1
(g5
S'\x1e\x00\x00\x00\x00\x00\x00\x00'
p530
tp531
Rp532
F0.2
tp533
I47
s(g1
(g5
S'F\x00\x00\x00\x00\x00\x00\x00'
p534
tp535
Rp536
F0.45
tp537
I51
s(g50
F0.0
tp538
I18
s(g1
(g5
S')\x00\x00\x00\x00\x00\x00\x00'
p539
tp540
Rp541
F0.17
tp542
I49
s(g1
(g5
S'-\x00\x00\x00\x00\x00\x00\x00'
p543
tp544
Rp545
F0.11
tp546
I47
s(g152
F0.45
tp547
I51
s(g1
(g5
S'\xaf\x00\x00\x00\x00\x00\x00\x00'
p548
tp549
Rp550
F0.5
tp551
I50
s(g194
F0.24
tp552
I51
s(g1
(g5
S'4\x00\x00\x00\x00\x00\x00\x00'
p553
tp554
Rp555
F0.12
tp556
I48
s(g160
F0.05
tp557
I43
s(g493
F0.2
tp558
I53
s(g111
F0.11
tp559
I47
s(g480
F0.05
tp560
I43
s(g476
F0.16
tp561
I51
s(g91
F0.24
tp562
I50
s(g297
F0.25
tp563
I51
s(g1
(g5
S'\x1e\x00\x00\x00\x00\x00\x00\x00'
p564
tp565
Rp566
F0.45
tp567
I46
s(g351
F0.22
tp568
I52
s(g30
F0.17
tp569
I37
s(g258
F0.3
tp570
I52
s(g1
(g5
S'~\x00\x00\x00\x00\x00\x00\x00'
p571
tp572
Rp573
F0.0
tp574
I18
s(g143
F0.18
tp575
I51
s(g422
F0.22
tp576
I52
s(g1
(g5
S'#\x00\x00\x00\x00\x00\x00\x00'
p577
tp578
Rp579
F0.4
tp580
I47
s(g1
(g5
S'\x9c\x00\x00\x00\x00\x00\x00\x00'
p581
tp582
Rp583
F0.15
tp584
I52
s(g164
F0.24
tp585
I46
s(g26
F0.17
tp586
I52
s(g177
F0.2
tp587
I51
s(g30
F0.16
tp588
I37
s(g448
F0.25
tp589
I39
s(g236
F0.05
tp590
I44
s(g512
F0.15
tp591
I51
s(g363
F0.24
tp592
I47
s(g1
(g5
S'W\x00\x00\x00\x00\x00\x00\x00'
p593
tp594
Rp595
F0.25
tp596
I51
s(g1
(g5
S';\x00\x00\x00\x00\x00\x00\x00'
p597
tp598
Rp599
F0.14
tp600
I50
s(g323
F0.23
tp601
I51
s(g427
F0.14
tp602
I51
s(g277
F0.3
tp603
I51
s(g220
F0.0
tp604
I18
s(g521
F0.18
tp605
I38
s(g1
(g5
S'8\x00\x00\x00\x00\x00\x00\x00'
p606
tp607
Rp608
F0.13
tp609
I50
s(g379
F0.22
tp610
I53
s(g400
F0.16
tp611
I53
s(g1
(g5
S'\x97\x00\x00\x00\x00\x00\x00\x00'
p612
tp613
Rp614
F0.14
tp615
I51
s(g115
F0.16
tp616
I53
s(g545
F0.14
tp617
I49
s(g1
(g5
S'(\x00\x00\x00\x00\x00\x00\x00'
p618
tp619
Rp620
F0.22
tp621
I49
s(g103
F0.23
tp622
I52
s(g131
F0.22
tp623
I52
s(g285
F0.05
tp624
I44
s(g285
F0.15
tp625
I52
s(g119
F0.0
tp626
I18
s(g608
F0.15
tp627
I52
s(g1
(g5
S'\x87\x00\x00\x00\x00\x00\x00\x00'
p628
tp629
Rp630
F0.0
tp631
I18
s(g595
F0.2
tp632
I52
s(g506
F0.5
tp633
I50
s(g156
F0.25
tp634
I51
s(g160
F0.3
tp635
I52
s(g1
(g5
S'U\x00\x00\x00\x00\x00\x00\x00'
p636
tp637
Rp638
F0.24
tp639
I51
s(g1
(g5
S'-\x00\x00\x00\x00\x00\x00\x00'
p640
tp641
Rp642
F0.4
tp643
I49
s(g536
F0.4
tp644
I51
s(g599
F0.12
tp645
I47
s(g262
F0.1
tp646
I47
s(g182
F0.22
tp647
I51
s(g62
F0.16
tp648
I51
s(g14
F0.23
tp649
I52
s(g394
F0.24
tp650
I49
s(g331
F0.05
tp651
I43
s(g355
F0.14
tp652
I48
s(g351
F0.19
tp653
I52
s(g345
F0.24
tp654
I52
s(g224
F0.3
tp655
I52
s(g194
F0.21
tp656
I52
s(g1
(g5
S'\xb4\x00\x00\x00\x00\x00\x00\x00'
p657
tp658
Rp659
F0.2
tp660
I52
s(g387
F0.21
tp661
I53
s(g1
(g5
S':\x00\x00\x00\x00\x00\x00\x00'
p662
tp663
Rp664
F0.25
tp665
I52
s(g331
F0.2
tp666
I52
s(g480
F0.0
tp667
I18
s(g1
(g5
S'\x82\x00\x00\x00\x00\x00\x00\x00'
p668
tp669
Rp670
F0.14
tp671
I51
s(g1
(g5
S'n\x00\x00\x00\x00\x00\x00\x00'
p672
tp673
Rp674
F0.1
tp675
I48
s(g1
(g5
S'\x91\x00\x00\x00\x00\x00\x00\x00'
p676
tp677
Rp678
F0.25
tp679
I52
s(g1
(g5
S'\n\x00\x00\x00\x00\x00\x00\x00'
p680
tp681
Rp682
F0.4
tp683
I39
s(g536
F0.5
tp684
I51
s(g232
F0.05
tp685
I44
s(g573
F0.25
tp686
I52
s(g168
F0.2
tp687
I53
s(g444
F0.11
tp688
I48
s(g173
F0.23
tp689
I52
s(g367
F0.21
tp690
I53
s(g1
(g5
S'\x13\x00\x00\x00\x00\x00\x00\x00'
p691
tp692
Rp693
F0.25
tp694
I40
s(g439
F0.35
tp695
I52
s(g10
F0.24
tp696
I51
s(g579
F0.45
tp697
I47
s(g10
F0.19
tp698
I52
s(g173
F0.22
tp699
I53
s(g664
F0.2
tp700
I53
s(g642
F0.5
tp701
I49
s(g266
F0.13
tp702
I48
s(g664
F0.05
tp703
I43
s(g199
F0.23
tp704
I52
s(g70
F0.05
tp705
I43
s(g1
(g5
S'\x8c\x00\x00\x00\x00\x00\x00\x00'
p706
tp707
Rp708
F0.35
tp709
I52
s(g448
F0.1
tp710
I38
s(g254
F0.17
tp711
I52
s(g1
(g5
S',\x00\x00\x00\x00\x00\x00\x00'
p712
tp713
Rp714
F0.21
tp715
I51
s(g453
F0.3
tp716
I51
s(g173
F0.16
tp717
I53
s(g642
F0.0
tp718
I18
s(g480
F0.1
tp719
I47
s(g70
F0.0
tp720
I18
s(g177
F0.16
tp721
I51
s(g119
F0.35
tp722
I44
s(g674
F0.25
tp723
I52
s(g246
F0.16
tp724
I53
s(g74
F0.22
tp725
I53
s(g714
F0.16
tp726
I51
s(g476
F0.24
tp727
I50
s(g1
(g5
S'4\x00\x00\x00\x00\x00\x00\x00'
p728
tp729
Rp730
F0.16
tp731
I52
s(g1
(g5
S'x\x00\x00\x00\x00\x00\x00\x00'
p732
tp733
Rp734
F0.35
tp735
I52
s(g422
F0.17
tp736
I52
s(g1
(g5
S'n\x00\x00\x00\x00\x00\x00\x00'
p737
tp738
Rp739
F0.22
tp740
I53
s(g1
(g5
S'P\x00\x00\x00\x00\x00\x00\x00'
p741
tp742
Rp743
F0.5
tp744
I51
s(g476
F0.19
tp745
I51
s(g714
F0.22
tp746
I51
s(g1
(g5
S'\xa5\x00\x00\x00\x00\x00\x00\x00'
p747
tp748
Rp749
F0.18
tp750
I52
s(g638
F0.21
tp751
I52
s(g1
(g5
S'7\x00\x00\x00\x00\x00\x00\x00'
p752
tp753
Rp754
F0.35
tp755
I52
s(g714
F0.18
tp756
I51
s(g1
(g5
S'x\x00\x00\x00\x00\x00\x00\x00'
p757
tp758
Rp759
F0.25
tp760
I52
s(g739
F0.18
tp761
I53
s(g46
F0.14
tp762
I51
s(g435
F0.2
tp763
I53
s(g1
(g5
S'\n\x00\x00\x00\x00\x00\x00\x00'
p764
tp765
Rp766
F0.3
tp767
I38
s(g412
F0.16
tp768
I52
s(g220
F0.15
tp769
I51
s(g323
F0.24
tp770
I51
s(g103
F0.16
tp771
I53
s(g379
F0.23
tp772
I52
s(g412
F0.17
tp773
I52
s(g297
F0.15
tp774
I51
s(g1
(g5
S'I\x00\x00\x00\x00\x00\x00\x00'
p775
tp776
Rp777
F0.2
tp778
I52
s(g273
F0.2
tp779
I49
s(g232
F0.0
tp780
I18
s(g359
F0.12
tp781
I48
s(g412
F0.19
tp782
I52
s(g42
F0.16
tp783
I52
s(g363
F0.23
tp784
I47
s(g139
F0.19
tp785
I40
s(g638
F0.18
tp786
I52
s(g412
F0.23
tp787
I51
s(g1
(g5
S'\xaa\x00\x00\x00\x00\x00\x00\x00'
p788
tp789
Rp790
F0.35
tp791
I51
s(g638
F0.16
tp792
I52
s(g74
F0.21
tp793
I53
s(g123
F0.17
tp794
I53
s(g678
F0.35
tp795
I52
s(g241
F0.2
tp796
I52
s(g759
F0.3
tp797
I52
s(g173
F0.17
tp798
I53
s(g123
F0.19
tp799
I53
s(g400
F0.22
tp800
I53
s(g340
F0.4
tp801
I51
s(g1
(g5
S'5\x00\x00\x00\x00\x00\x00\x00'
p802
tp803
Rp804
F0.12
tp805
I48
s(g301
F0.0
tp806
I18
s(g1
(g5
S'\x9b\x00\x00\x00\x00\x00\x00\x00'
p807
tp808
Rp809
F0.2
tp810
I53
s(g532
F0.25
tp811
I46
s(g422
F0.19
tp812
I52
s(g139
F0.18
tp813
I40
s(g444
F0.13
tp814
I50
s(g682
F0.5
tp815
I39
s(g526
F0.16
tp816
I52
s(g754
F0.1
tp817
I48
s(g1
(g5
S'd\x00\x00\x00\x00\x00\x00\x00'
p818
tp819
Rp820
F0.14
tp821
I50
s(g790
F0.5
tp822
I50
s(g1
(g5
S'\x85\x00\x00\x00\x00\x00\x00\x00'
p823
tp824
Rp825
F0.14
tp826
I51
s(g1
(g5
S')\x00\x00\x00\x00\x00\x00\x00'
p827
tp828
Rp829
F0.15
tp830
I48
s(g579
F0.1
tp831
I45
s(g87
F0.5
tp832
I51
s(g293
F0.16
tp833
I51
s(g749
F0.23
tp834
I51
s(g224
F0.25
tp835
I51
s(g825
F0.18
tp836
I53
s(g297
F0.05
tp837
I43
s(g467
F0.12
tp838
I48
s(g749
F0.16
tp839
I52
s(g809
F0.5
tp840
I51
s(g14
F0.19
tp841
I53
s(g10
F0.16
tp842
I52
s(g50
F0.35
tp843
I38
s(g119
F0.1
tp844
I42
s(g467
F0.14
tp845
I50
s(g599
F0.15
tp846
I51
s(g236
F0.3
tp847
I52
s(g394
F0.21
tp848
I50
s(g448
F0.3
tp849
I39
s(g156
F0.1
tp850
I47
s(g516
F0.0
tp851
I18
s(g614
F0.16
tp852
I53
s(g620
F0.23
tp853
I48
s(g241
F0.3
tp854
I51
s(g371
F0.2
tp855
I53
s(g305
F0.17
tp856
I52
s(g367
F0.16
tp857
I53
s(g375
F0.05
tp858
I43
s(g777
F0.0
tp859
I18
s(g70
F0.25
tp860
I52
s(g1
(g5
S'<\x00\x00\x00\x00\x00\x00\x00'
p861
tp862
Rp863
F0.12
tp864
I47
s(g1
(g5
S'7\x00\x00\x00\x00\x00\x00\x00'
p865
tp866
Rp867
F0.11
tp868
I48
s(g453
F0.0
tp869
I18
s(g630
F0.45
tp870
I51
s(g131
F0.2
tp871
I52
s(g14
F0.22
tp872
I53
s(g1
(g5
S'\x96\x00\x00\x00\x00\x00\x00\x00'
p873
tp874
Rp875
F0.14
tp876
I51
s(g14
F0.18
tp877
I53
s(g50
F0.05
tp878
I33
s(g152
F0.0
tp879
I18
s(g152
F0.2
tp880
I53
s(g484
F0.35
tp881
I52
s(g863
F0.11
tp882
I47
s(g754
F0.15
tp883
I52
s(g754
F0.0
tp884
I18
s(g708
F0.4
tp885
I51
s(g91
F0.18
tp886
I51
s(g14
F0.21
tp887
I53
s(g516
F0.1
tp888
I44
s(g224
F0.05
tp889
I43
s(g363
F0.18
tp890
I48
s(g38
F0.16
tp891
I52
s(g1
(g5
S',\x00\x00\x00\x00\x00\x00\x00'
p892
tp893
Rp894
F0.0
tp895
I18
s(g1
(g5
S'\x83\x00\x00\x00\x00\x00\x00\x00'
p896
tp897
Rp898
F0.25
tp899
I52
s(g148
F0.15
tp900
I52
s(g829
F0.13
tp901
I47
s(g489
F0.23
tp902
I52
s(g867
F0.13
tp903
I50
s(g642
F0.15
tp904
I50
s(g894
F0.05
tp905
I44
s(g674
F0.3
tp906
I52
s(g160
F0.0
tp907
I18
s(g1
(g5
S'\x9d\x00\x00\x00\x00\x00\x00\x00'
p908
tp909
Rp910
F0.18
tp911
I53
s(g730
F0.18
tp912
I52
s(g258
F0.2
tp913
I53
s(g516
F0.05
tp914
I39
s(g313
F0.05
tp915
I43
s(g1
(g5
S'Z\x00\x00\x00\x00\x00\x00\x00'
p916
tp917
Rp918
F0.45
tp919
I50
s(g664
F0.3
tp920
I52
s(g340
F0.1
tp921
I47
s(g273
F0.05
tp922
I43
s(g484
F0.4
tp923
I51
s(g453
F0.4
tp924
I50
s(g512
F0.1
tp925
I47
s(g127
F0.4
tp926
I51
s(g220
F0.5
tp927
I51
s(g313
F0.15
tp928
I48
s(g493
F0.05
tp929
I44
s(g277
F0.1
tp930
I47
s(g164
F0.21
tp931
I47
s(g642
F0.3
tp932
I50
s(g220
F0.45
tp933
I50
s(g87
F0.35
tp934
I52
s(g54
F0.21
tp935
I52
s(g190
F0.15
tp936
I42
s(g1
(g5
S'S\x00\x00\x00\x00\x00\x00\x00'
p937
tp938
Rp939
F0.3
tp940
I52
s(g50
F0.2
tp941
I37
s(g340
F0.35
tp942
I52
s(g34
F0.3
tp943
I51
s(g281
F0.15
tp944
I48
s(g305
F0.24
tp945
I51
s(g91
F0.22
tp946
I51
s(g497
F0.3
tp947
I52
s(g573
F0.1
tp948
I48
s(g375
F0.25
tp949
I51
s(g521
F0.22
tp950
I39
s(g1
(g5
S'n\x00\x00\x00\x00\x00\x00\x00'
p951
tp952
Rp953
F0.45
tp954
I51
s(g894
F0.2
tp955
I51
s(g489
F0.17
tp956
I53
s(g363
F0.19
tp957
I48
s(g422
F0.23
tp958
I51
s(g1
(g5
S'.\x00\x00\x00\x00\x00\x00\x00'
p959
tp960
Rp961
F0.15
tp962
I50
s(g953
F0.5
tp963
I51
s(g422
F0.16
tp964
I52
s(g345
F0.17
tp965
I53
s(g123
F0.23
tp966
I52
s(g493
F0.1
tp967
I48
s(g467
F0.13
tp968
I50
s(g258
F0.15
tp969
I52
s(g583
F0.3
tp970
I52
s(g754
F0.45
tp971
I51
s(g285
F0.2
tp972
I53
s(g258
F0.25
tp973
I52
s(g293
F0.24
tp974
I50
s(g664
F0.0
tp975
I18
s(g1
(g5
S'\xaa\x00\x00\x00\x00\x00\x00\x00'
p976
tp977
Rp978
F0.2
tp979
I52
s(g34
F0.1
tp980
I47
s(g78
F0.1
tp981
I47
s(g246
F0.24
tp982
I52
s(g177
F0.22
tp983
I51
s(g14
F0.16
tp984
I53
s(g730
F0.22
tp985
I52
s(g730
F0.23
tp986
I51
s(g674
F0.0
tp987
I18
s(g135
F0.35
tp988
I51
s(g1
(g5
S'2\x00\x00\x00\x00\x00\x00\x00'
p989
tp990
Rp991
F0.11
tp992
I48
s(g335
F0.21
tp993
I52
s(g991
F0.14
tp994
I50
s(g448
F0.05
tp995
I35
s(g1
(g5
S'6\x00\x00\x00\x00\x00\x00\x00'
p996
tp997
Rp998
F0.18
tp999
I53
s(g327
F0.25
tp1000
I51
s(g394
F0.22
tp1001
I50
s(g1
(g5
S'2\x00\x00\x00\x00\x00\x00\x00'
p1002
tp1003
Rp1004
F0.3
tp1005
I51
s(g809
F0.0
tp1006
I18
s(g501
F0.14
tp1007
I49
s(g516
F0.25
tp1008
I46
s(g953
F0.4
tp1009
I51
s(g555
F0.15
tp1010
I51
s(g809
F0.4
tp1011
I51
s(g1
(g5
S'(\x00\x00\x00\x00\x00\x00\x00'
p1012
tp1013
Rp1014
F0.11
tp1015
I46
s(g204
F0.11
tp1016
I47
s(g273
F0.25
tp1017
I48
s(g493
F0.15
tp1018
I52
s(g1
(g5
S'<\x00\x00\x00\x00\x00\x00\x00'
p1019
tp1020
Rp1021
F0.35
tp1022
I52
s(g293
F0.17
tp1023
I51
s(g254
F0.21
tp1024
I52
s(g825
F0.16
tp1025
I53
s(g579
F0.35
tp1026
I47
s(g293
F0.18
tp1027
I51
s(g156
F0.3
tp1028
I51
s(g258
F0.0
tp1029
I18
s(g66
F0.15
tp1030
I38
s(g754
F0.2
tp1031
I53
s(g246
F0.21
tp1032
I53
s(g10
F0.21
tp1033
I52
s(g730
F0.19
tp1034
I52
s(g809
F0.15
tp1035
I52
s(g182
F0.19
tp1036
I51
s(g327
F0.2
tp1037
I52
s(g1
(g5
S'\x8b\x00\x00\x00\x00\x00\x00\x00'
p1038
tp1039
Rp1040
F0.14
tp1041
I51
s(g38
F0.19
tp1042
I52
s(g379
F0.18
tp1043
I53
s(g1
(g5
S'6\x00\x00\x00\x00\x00\x00\x00'
p1044
tp1045
Rp1046
F0.14
tp1047
I51
s(g739
F0.24
tp1048
I52
s(g412
F0.18
tp1049
I52
s(g199
F0.21
tp1050
I53
s(g541
F0.21
tp1051
I49
s(g526
F0.19
tp1052
I52
s(g327
F0.3
tp1053
I51
s(g659
F0.1
tp1054
I47
s(g1014
F0.12
tp1055
I46
s(g734
F0.45
tp1056
I51
s(g99
F0.0
tp1057
I18
s(g678
F0.2
tp1058
I53
s(g204
F0.14
tp1059
I49
s(g480
F0.3
tp1060
I52
s(g472
F0.05
tp1061
I43
s(g501
F0.11
tp1062
I47
s(g194
F0.23
tp1063
I51
s(g978
F0.1
tp1064
I47
s(g277
F0.25
tp1065
I51
s(g476
F0.21
tp1066
I51
s(g526
F0.23
tp1067
I51
s(g642
F0.25
tp1068
I50
s(g766
F0.0
tp1069
I18
s(g435
F0.18
tp1070
I53
s(g293
F0.19
tp1071
I51
s(g418
F0.17
tp1072
I53
s(g54
F0.17
tp1073
I52
s(g1021
F0.45
tp1074
I51
s(g340
F0.0
tp1075
I18
s(g638
F0.19
tp1076
I52
s(g939
F0.1
tp1077
I47
s(g351
F0.16
tp1078
I52
s(g387
F0.22
tp1079
I53
s(g1
(g5
S'j\x00\x00\x00\x00\x00\x00\x00'
p1080
tp1081
Rp1082
F0.17
tp1083
I53
s(g1046
F0.15
tp1084
I52
s(g894
F0.3
tp1085
I50
s(g682
F0.45
tp1086
I39
s(g961
F0.12
tp1087
I47
s(g285
F0.0
tp1088
I18
s(g472
F0.1
tp1089
I47
s(g1014
F0.13
tp1090
I47
s(g387
F0.18
tp1091
I53
s(g1046
F0.13
tp1092
I50
s(g1
(g5
S'1\x00\x00\x00\x00\x00\x00\x00'
p1093
tp1094
Rp1095
F0.14
tp1096
I49
s(g439
F0.15
tp1097
I52
s(g375
F0.2
tp1098
I52
s(g406
F0.15
tp1099
I50
s(g453
F0.25
tp1100
I51
s(g1
(g5
S'\x9a\x00\x00\x00\x00\x00\x00\x00'
p1101
tp1102
Rp1103
F0.15
tp1104
I52
s(g829
F0.11
tp1105
I46
s(g208
F0.16
tp1106
I53
s(g1004
F0.0
tp1107
I18
s(g766
F0.2
tp1108
I38
s(g422
F0.24
tp1109
I51
s(g754
F0.4
tp1110
I51
s(g759
F0.2
tp1111
I53
s(g254
F0.23
tp1112
I51
s(g208
F0.17
tp1113
I53
s(g766
F0.15
tp1114
I38
s(g749
F0.19
tp1115
I52
s(g164
F0.17
tp1116
I47
s(g66
F0.25
tp1117
I36
s(g319
F0.4
tp1118
I50
s(g678
F0.05
tp1119
I44
s(g804
F0.13
tp1120
I50
s(g595
F0.1
tp1121
I47
s(g521
F0.23
tp1122
I38
s(g186
F0.23
tp1123
I44
s(g573
F0.05
tp1124
I44
s(g1004
F0.25
tp1125
I51
s(g186
F0.16
tp1126
I45
s(g277
F0.05
tp1127
I43
s(g345
F0.23
tp1128
I52
s(g476
F0.18
tp1129
I51
s(g453
F0.45
tp1130
I50
s(g472
F0.2
tp1131
I52
s(g472
F0.25
tp1132
I51
s(g566
F0.4
tp1133
I46
s(g131
F0.17
tp1134
I52
s(g1
(g5
S'\x8e\x00\x00\x00\x00\x00\x00\x00'
p1135
tp1136
Rp1137
F0.15
tp1138
I52
s(g1
(g5
S'\xa0\x00\x00\x00\x00\x00\x00\x00'
p1139
tp1140
Rp1141
F0.4
tp1142
I51
s(g379
F0.17
tp1143
I53
s(g123
F0.22
tp1144
I53
s(g898
F0.05
tp1145
I44
s(g1103
F0.17
tp1146
I53
s(g1
(g5
S'2\x00\x00\x00\x00\x00\x00\x00'
p1147
tp1148
Rp1149
F0.5
tp1150
I50
s(g383
F0.45
tp1151
I51
s(g355
F0.15
tp1152
I50
s(g630
F0.1
tp1153
I48
s(g305
F0.16
tp1154
I52
s(g978
F0.05
tp1155
I43
s(g579
F0.15
tp1156
I47
s(g439
F0.2
tp1157
I53
s(g412
F0.21
tp1158
I52
s(g277
F0.0
tp1159
I18
s(g387
F0.19
tp1160
I53
s(g1
(g5
S'\x96\x00\x00\x00\x00\x00\x00\x00'
p1161
tp1162
Rp1163
F0.1
tp1164
I48
s(g18
F0.16
tp1165
I52
s(g30
F0.22
tp1166
I37
s(g863
F0.13
tp1167
I49
s(g143
F0.22
tp1168
I51
s(g678
F0.45
tp1169
I51
s(g119
F0.3
tp1170
I44
s(g898
F0.1
tp1171
I48
s(g123
F0.16
tp1172
I53
s(g10
F0.18
tp1173
I52
s(g898
F0.3
tp1174
I52
s(g103
F0.18
tp1175
I53
s(g489
F0.21
tp1176
I53
s(g583
F0.2
tp1177
I53
s(g708
F0.5
tp1178
I51
s(g1040
F0.17
tp1179
I53
s(g115
F0.15
tp1180
I52
s(g453
F0.05
tp1181
I43
s(g297
F0.3
tp1182
I52
s(g367
F0.23
tp1183
I52
s(g42
F0.22
tp1184
I52
s(g1046
F0.11
tp1185
I48
s(g739
F0.16
tp1186
I53
s(g777
F0.1
tp1187
I47
s(g18
F0.23
tp1188
I51
s(g305
F0.18
tp1189
I52
s(g630
F0.4
tp1190
I51
s(g331
F0.25
tp1191
I51
s(g363
F0.16
tp1192
I48
s(g66
F0.05
tp1193
I34
s(g541
F0.22
tp1194
I49
s(g387
F0.16
tp1195
I53
s(g1
(g5
S'?\x00\x00\x00\x00\x00\x00\x00'
p1196
tp1197
Rp1198
F0.2
tp1199
I52
s(g991
F0.12
tp1200
I48
s(g777
F0.15
tp1201
I51
s(g38
F0.21
tp1202
I52
s(g743
F0.45
tp1203
I51
s(g70
F0.1
tp1204
I48
s(g1103
F0.16
tp1205
I53
s(g387
F0.24
tp1206
I52
s(g46
F0.15
tp1207
I52
s(g351
F0.21
tp1208
I52
s(g484
F0.45
tp1209
I51
s(g164
F0.18
tp1210
I47
s(g232
F0.25
tp1211
I52
s(g678
F0.0
tp1212
I18
s(g38
F0.18
tp1213
I52
s(g266
F0.14
tp1214
I48
s(g148
F0.18
tp1215
I53
s(g1198
F0.1
tp1216
I47
s(g54
F0.16
tp1217
I52
s(g182
F0.18
tp1218
I51
s(g335
F0.23
tp1219
I51
s(g281
F0.2
tp1220
I49
s(g444
F0.12
tp1221
I48
s(g131
F0.16
tp1222
I52
s(g431
F0.05
tp1223
I43
s(g1
(g5
S'\x91\x00\x00\x00\x00\x00\x00\x00'
p1224
tp1225
Rp1226
F0.14
tp1227
I51
s(g95
F0.24
tp1228
I51
s(g78
F0.15
tp1229
I51
s(g541
F0.2
tp1230
I49
s(g182
F0.21
tp1231
I51
s(g1198
F0.15
tp1232
I51
s(g95
F0.21
tp1233
I52
s(g383
F0.25
tp1234
I51
s(g87
F0.45
tp1235
I51
s(g173
F0.18
tp1236
I53
s(g579
F0.25
tp1237
I47
s(g340
F0.3
tp1238
I52
s(g91
F0.21
tp1239
I51
s(g1137
F0.16
tp1240
I53
s(g359
F0.14
tp1241
I51
s(g1
(g5
S'm\x00\x00\x00\x00\x00\x00\x00'
p1242
tp1243
Rp1244
F0.17
tp1245
I53
s(g678
F0.5
tp1246
I51
s(g595
F0.0
tp1247
I18
s(g111
F0.12
tp1248
I47
s(g693
F0.3
tp1249
I40
s(g173
F0.24
tp1250
I52
s(g190
F0.05
tp1251
I37
s(g143
F0.16
tp1252
I51
s(g1
(g5
S's\x00\x00\x00\x00\x00\x00\x00'
p1253
tp1254
Rp1255
F0.14
tp1256
I51
s(g532
F0.3
tp1257
I47
s(g371
F0.1
tp1258
I48
s(g714
F0.19
tp1259
I51
s(g30
F0.21
tp1260
I37
s(g678
F0.15
tp1261
I52
s(g458
F0.4
tp1262
I50
s(g379
F0.21
tp1263
I53
s(g961
F0.11
tp1264
I47
s(g143
F0.24
tp1265
I50
s(g526
F0.24
tp1266
I51
s(g497
F0.1
tp1267
I48
s(g383
F0.05
tp1268
I43
s(g152
F0.3
tp1269
I52
s(g501
F0.13
tp1270
I49
s(g749
F0.21
tp1271
I52
s(g579
F0.0
tp1272
I18
s(g62
F0.24
tp1273
I50
s(g566
F0.35
tp1274
I47
s(g630
F0.35
tp1275
I52
s(g1
(g5
S'\xc3\x00\x00\x00\x00\x00\x00\x00'
p1276
tp1277
Rp1278
F0.5
tp1279
I50
s(g383
F0.15
tp1280
I51
s(g379
F0.16
tp1281
I53
s(g1
(g5
S'\xa0\x00\x00\x00\x00\x00\x00\x00'
p1282
tp1283
Rp1284
F0.14
tp1285
I51
s(g363
F0.21
tp1286
I48
s(g453
F0.1
tp1287
I47
s(g448
F0.15
tp1288
I39
s(g476
F0.17
tp1289
I51
s(g74
F0.23
tp1290
I52
s(g400
F0.23
tp1291
I52
s(g1040
F0.18
tp1292
I53
s(g825
F0.15
tp1293
I52
s(g123
F0.21
tp1294
I53
s(g74
F0.16
tp1295
I53
s(g894
F0.1
tp1296
I47
s(g614
F0.18
tp1297
I53
s(g394
F0.23
tp1298
I49
s(g103
F0.24
tp1299
I52
s(g66
F0.0
tp1300
I18
s(g939
F0.15
tp1301
I51
s(g10
F0.23
tp1302
I51
s(g199
F0.18
tp1303
I53
s(g50
F0.45
tp1304
I38
s(g620
F0.17
tp1305
I49
s(g532
F0.15
tp1306
I46
s(g1021
F0.4
tp1307
I51
s(g550
F0.35
tp1308
I51
s(g978
F0.3
tp1309
I51
s(g351
F0.24
tp1310
I51
s(g894
F0.15
tp1311
I50
s(g749
F0.22
tp1312
I52
s(g435
F0.19
tp1313
I53
s(g156
F0.15
tp1314
I51
s(g327
F0.15
tp1315
I51
s(g759
F0.15
tp1316
I52
s(g177
F0.23
tp1317
I50
s(g301
F0.2
tp1318
I53
s(g608
F0.12
tp1319
I48
s(g595
F0.3
tp1320
I51
s(g323
F0.16
tp1321
I52
s(g103
F0.19
tp1322
I53
s(g439
F0.3
tp1323
I52
s(g1278
F0.4
tp1324
I50
s(g1103
F0.14
tp1325
I51
s(g998
F0.19
tp1326
I53
s(g309
F0.18
tp1327
I53
s(g371
F0.15
tp1328
I52
s(g224
F0.2
tp1329
I52
s(g406
F0.2
tp1330
I51
s(g208
F0.19
tp1331
I53
s(g427
F0.17
tp1332
I53
s(g898
F0.15
tp1333
I52
s(g30
F0.18
tp1334
I37
s(g285
F0.25
tp1335
I52
s(g95
F0.19
tp1336
I52
s(g435
F0.21
tp1337
I53
s(g82
F0.25
tp1338
I51
s(g148
F0.17
tp1339
I53
s(g107
F0.2
tp1340
I52
s(g241
F0.25
tp1341
I51
s(g293
F0.23
tp1342
I50
s(g95
F0.17
tp1343
I52
s(g693
F0.15
tp1344
I40
s(g26
F0.16
tp1345
I52
s(g678
F0.3
tp1346
I52
s(g383
F0.2
tp1347
I52
s(g220
F0.1
tp1348
I47
s(g555
F0.14
tp1349
I50
s(g918
F0.4
tp1350
I50
s(g54
F0.24
tp1351
I51
s(g1
(g5
S'g\x00\x00\x00\x00\x00\x00\x00'
p1352
tp1353
Rp1354
F0.15
tp1355
I51
s(g394
F0.16
tp1356
I50
s(g439
F0.05
tp1357
I44
s(g224
F0.1
tp1358
I47
s(g630
F0.5
tp1359
I51
s(g345
F0.16
tp1360
I53
s(g241
F0.0
tp1361
I18
s(g164
F0.19
tp1362
I47
s(g583
F0.0
tp1363
I18
s(g620
F0.19
tp1364
I49
s(g458
F0.35
tp1365
I51
s(g412
F0.24
tp1366
I51
s(g918
F0.5
tp1367
I50
s(g867
F0.14
tp1368
I51
s(g208
F0.23
tp1369
I52
s(g289
F0.3
tp1370
I52
s(g26
F0.23
tp1371
I51
s(g998
F0.2
tp1372
I53
s(g1103
F0.18
tp1373
I53
s(g754
F0.05
tp1374
I44
s(g642
F0.1
tp1375
I47
s(g532
F0.0
tp1376
I18
s(g34
F0.2
tp1377
I52
s(g1244
F0.18
tp1378
I53
s(g693
F0.05
tp1379
I35
s(g66
F0.2
tp1380
I37
s(g190
F0.1
tp1381
I40
s(g693
F0.2
tp1382
I41
s(g107
F0.15
tp1383
I51
s(g1278
F0.45
tp1384
I50
s(g186
F0.19
tp1385
I45
s(g323
F0.17
tp1386
I52
s(g439
F0.25
tp1387
I52
s(g313
F0.2
tp1388
I49
s(g26
F0.19
tp1389
I52
s(g168
F0.3
tp1390
I52
s(g1354
F0.17
tp1391
I52
s(g659
F0.3
tp1392
I51
s(g351
F0.18
tp1393
I52
s(g427
F0.18
tp1394
I53
s(g714
F0.23
tp1395
I50
s(g406
F0.1
tp1396
I47
s(g583
F0.05
tp1397
I44
s(g599
F0.13
tp1398
I49
s(g1244
F0.14
tp1399
I51
s(g82
F0.0
tp1400
I18
s(g730
F0.24
tp1401
I51
s(g743
F0.4
tp1402
I51
s(g281
F0.25
tp1403
I48
s(g62
F0.22
tp1404
I51
s(g961
F0.14
tp1405
I49
s(g435
F0.24
tp1406
I52
s(g254
F0.24
tp1407
I51
s(g545
F0.13
tp1408
I49
s(g250
F0.35
tp1409
I39
s(g289
F0.2
tp1410
I53
s(g998
F0.24
tp1411
I52
s(g359
F0.15
tp1412
I52
s(g152
F0.1
tp1413
I48
s(g614
F0.17
tp1414
I53
s(g809
F0.1
tp1415
I48
s(g579
F0.3
tp1416
I47
s(g177
F0.19
tp1417
I51
s(g371
F0.25
tp1418
I52
s(g213
F0.5
tp1419
I50
s(g448
F0.0
tp1420
I18
s(g18
F0.24
tp1421
I51
s(g749
F0.24
tp1422
I51
s(g54
F0.19
tp1423
I52
s(g262
F0.15
tp1424
I51
s(g345
F0.18
tp1425
I53
s(g638
F0.17
tp1426
I52
s(g759
F0.05
tp1427
I44
s(g194
F0.19
tp1428
I52
s(g739
F0.19
tp1429
I53
s(g74
F0.17
tp1430
I53
s(g82
F0.45
tp1431
I51
s(g961
F0.13
tp1432
I49
s(g642
F0.2
tp1433
I51
s(g18
F0.17
tp1434
I52
s(g50
F0.15
tp1435
I37
s(g58
F0.18
tp1436
I52
s(g579
F0.2
tp1437
I48
s(g809
F0.3
tp1438
I52
s(g301
F0.15
tp1439
I52
s(g422
F0.18
tp1440
I52
s(g78
F0.25
tp1441
I51
s(g115
F0.14
tp1442
I51
s(g659
F0.0
tp1443
I18
s(g95
F0.23
tp1444
I51
s(g22
F0.18
tp1445
I53
s(g42
F0.17
tp1446
I52
s(g14
F0.17
tp1447
I53
s(g998
F0.17
tp1448
I53
s(g766
F0.05
tp1449
I32
s(g143
F0.19
tp1450
I51
s(g394
F0.18
tp1451
I50
s(g186
F0.22
tp1452
I45
s(g160
F0.2
tp1453
I52
s(g642
F0.05
tp1454
I44
s(g262
F0.05
tp1455
I43
s(g493
F0.25
tp1456
I52
s(g749
F0.17
tp1457
I52
s(g254
F0.18
tp1458
I52
s(g273
F0.15
tp1459
I48
s(g335
F0.19
tp1460
I52
s(g521
F0.17
tp1461
I38
s(g497
F0.25
tp1462
I52
s(g331
F0.15
tp1463
I51
s(g297
F0.1
tp1464
I47
s(g367
F0.18
tp1465
I53
s(g406
F0.0
tp1466
I18
s(g289
F0.0
tp1467
I18
s(g213
F0.4
tp1468
I50
s(g119
F0.4
tp1469
I43
s(g190
F0.2
tp1470
I43
s(g472
F0.15
tp1471
I51
s(g152
F0.5
tp1472
I51
s(g82
F0.35
tp1473
I52
s(g512
F0.25
tp1474
I51
s(g262
F0.25
tp1475
I51
s(g91
F0.17
tp1476
I51
s(g435
F0.17
tp1477
I53
s(g1004
F0.15
tp1478
I51
s(g825
F0.17
tp1479
I53
s(g139
F0.21
tp1480
I40
s(g204
F0.13
tp1481
I49
s(g74
F0.19
tp1482
I53
s(g435
F0.22
tp1483
I53
s(g281
F0.05
tp1484
I40
s(g521
F0.24
tp1485
I38
s(g323
F0.19
tp1486
I52
s(g620
F0.18
tp1487
I49
s(g693
F0.0
tp1488
I18
s(g867
F0.12
tp1489
I48
s(g501
F0.12
tp1490
I47
s(g387
F0.17
tp1491
I53
s(g573
F0.3
tp1492
I52
s(g379
F0.24
tp1493
I52
s(g190
F0.25
tp1494
I42
s(g107
F0.3
tp1495
I52
s(g131
F0.23
tp1496
I51
s(g273
F0.1
tp1497
I46
s(g199
F0.16
tp1498
I53
s(g516
F0.15
tp1499
I46
s(g1014
F0.14
tp1500
I47
s(g301
F0.25
tp1501
I52
s(g630
F0.15
tp1502
I52
s(g1137
F0.14
tp1503
I51
s(g573
F0.2
tp1504
I53
s(g1137
F0.18
tp1505
I53
s(g730
F0.17
tp1506
I52
s(g58
F0.21
tp1507
I52
s(g38
F0.22
tp1508
I52
s(g1244
F0.15
tp1509
I52
s(g1278
F0.35
tp1510
I51
s(g254
F0.16
tp1511
I52
s(g293
F0.21
tp1512
I51
s(g313
F0.3
tp1513
I49
s(g246
F0.23
tp1514
I52
s(g642
F0.35
tp1515
I50
s(g497
F0.15
tp1516
I52
s(g1
(g5
S'x\x00\x00\x00\x00\x00\x00\x00'
p1517
tp1518
Rp1519
F0.14
tp1520
I51
s(g664
F0.1
tp1521
I48
s(g439
F0.0
tp1522
I18
s(g107
F0.25
tp1523
I51
s(g327
F0.0
tp1524
I18
s(g313
F0.1
tp1525
I46
s(g177
F0.21
tp1526
I51
s(g1354
F0.14
tp1527
I50
s(g208
F0.21
tp1528
I53
s(g918
F0.35
tp1529
I51
s(g323
F0.18
tp1530
I52
s(g22
F0.17
tp1531
I53
s(g143
F0.21
tp1532
I51
s(g220
F0.35
tp1533
I51
s(g939
F0.2
tp1534
I52
s(g431
F0.15
tp1535
I51
s(g766
F0.1
tp1536
I36
s(g224
F0.15
tp1537
I51
s(g62
F0.18
tp1538
I51
s(g863
F0.14
tp1539
I50
s(g1004
F0.2
tp1540
I52
s(g489
F0.16
tp1541
I53
s(g1163
F0.05
tp1542
I44
s(g30
F0.23
tp1543
I36
s(g156
F0.2
tp1544
I52
s(g532
F0.1
tp1545
I44
s(g910
F0.16
tp1546
I53
s(g340
F0.45
tp1547
I51
s(g777
F0.3
tp1548
I52
s(g335
F0.17
tp1549
I52
s(g319
F0.35
tp1550
I51
s(g228
F0.5
tp1551
I48
s(g1198
F0.05
tp1552
I43
s(g804
F0.14
tp1553
I51
s(g383
F0.5
tp1554
I51
s(g809
F0.35
tp1555
I52
s(g458
F0.5
tp1556
I50
s(g1082
F0.15
tp1557
I52
s(g638
F0.23
tp1558
I51
s(g119
F0.45
tp1559
I43
s(g82
F0.2
tp1560
I52
s(g497
F0.05
tp1561
I44
s(g246
F0.18
tp1562
I53
s(g472
F0.0
tp1563
I18
s(g659
F0.15
tp1564
I51
s(g91
F0.19
tp1565
I51
s(g394
F0.19
tp1566
I50
s(g991
F0.13
tp1567
I50
s(g595
F0.15
tp1568
I51
s(g418
F0.16
tp1569
I53
s(g555
F0.11
tp1570
I48
s(g1040
F0.15
tp1571
I52
s(g340
F0.05
tp1572
I43
s(g1137
F0.17
tp1573
I53
s(g476
F0.23
tp1574
I50
s(g371
F0.05
tp1575
I44
s(g213
F0.35
tp1576
I51
s(g1
(g5
S'\x87\x00\x00\x00\x00\x00\x00\x00'
p1577
tp1578
Rp1579
F0.14
tp1580
I51
s(g693
F0.1
tp1581
I39
s(g1198
F0.25
tp1582
I51
s(g313
F0.25
tp1583
I48
s(g26
F0.18
tp1584
I52
s(g26
F0.24
tp1585
I51
s(g1163
F0.25
tp1586
I52
s(g555
F0.13
tp1587
I50
s(g579
F0.5
tp1588
I47
s(g978
F0.25
tp1589
I51
s(g168
F0.0
tp1590
I18
s(g305
F0.23
tp1591
I51
s(g78
F0.0
tp1592
I18
s(g1046
F0.12
tp1593
I48
s(g30
F0.24
tp1594
I36
s(g375
F0.1
tp1595
I47
s(g143
F0.17
tp1596
I51
s(g58
F0.24
tp1597
I51
s(g730
F0.2
tp1598
I52
s(g281
F0.1
tp1599
I46
s(g375
F0.3
tp1600
I51
s(g630
F0.3
tp1601
I52
s(g139
F0.17
tp1602
I40
s(g305
F0.21
tp1603
I52
s(g777
F0.25
tp1604
I51
s(g608
F0.14
tp1605
I51
s(g363
F0.17
tp1606
I48
s(g1004
F0.05
tp1607
I44
s(g541
F0.23
tp1608
I48
s(g754
F0.25
tp1609
I52
s(g550
F0.45
tp1610
I50
s(g526
F0.17
tp1611
I52
s(g1198
F0.0
tp1612
I18
s(g1163
F0.0
tp1613
I18
s(g232
F0.3
tp1614
I52
s(g566
F0.5
tp1615
I46
s(g375
F0.15
tp1616
I51
s(g22
F0.15
tp1617
I52
s(g232
F0.15
tp1618
I52
s(g168
F0.1
tp1619
I48
s(g281
F0.0
tp1620
I18
s(g1141
F0.35
tp1621
I52
s(g804
F0.11
tp1622
I48
s(g730
F0.21
tp1623
I52
s(g431
F0.2
tp1624
I52
s(g152
F0.4
tp1625
I51
s(g759
F0.1
tp1626
I48
s(g18
F0.22
tp1627
I52
s(g254
F0.19
tp1628
I52
s(g1244
F0.16
tp1629
I53
s(g480
F0.2
tp1630
I53
s(g497
F0.2
tp1631
I53
s(g910
F0.17
tp1632
I53
s(g453
F0.5
tp1633
I50
s(g1021
F0.5
tp1634
I51
s(g355
F0.12
tp1635
I47
s(g608
F0.11
tp1636
I48
s(g173
F0.21
tp1637
I53
s(g54
F0.23
tp1638
I51
s(g297
F0.0
tp1639
I18
s(g262
F0.0
tp1640
I18
s(g674
F0.2
tp1641
I53
s(g418
F0.18
tp1642
I53
s(g309
F0.17
tp1643
I53
s(g541
F0.16
tp1644
I49
s(g152
F0.25
tp1645
I52
s(g119
F0.2
tp1646
I45
s(g998
F0.23
tp1647
I52
s(g439
F0.4
tp1648
I51
s(g99
F0.05
tp1649
I44
s(g182
F0.17
tp1650
I51
s(g228
F0.4
tp1651
I48
s(g289
F0.05
tp1652
I44
s(g194
F0.22
tp1653
I52
s(g526
F0.22
tp1654
I52
s(g367
F0.24
tp1655
I52
s(g489
F0.19
tp1656
I53
s(g182
F0.2
tp1657
I51
s(g439
F0.1
tp1658
I48
s(g199
F0.17
tp1659
I53
s(g1163
F0.2
tp1660
I53
s(g545
F0.12
tp1661
I47
s(g46
F0.18
tp1662
I53
s(g493
F0.3
tp1663
I52
s(g400
F0.17
tp1664
I53
s(g107
F0.1
tp1665
I47
s(g418
F0.15
tp1666
I52
s(g70
F0.15
tp1667
I52
s(g400
F0.19
tp1668
I53
s(g119
F0.5
tp1669
I43
s(g453
F0.15
tp1670
I51
s(g1
(g5
S'\x8c\x00\x00\x00\x00\x00\x00\x00'
p1671
tp1672
Rp1673
F0.14
tp1674
I51
s(g50
F0.1
tp1675
I36
s(g42
F0.21
tp1676
I52
s(g1354
F0.18
tp1677
I52
s(g829
F0.14
tp1678
I47
s(g152
F0.05
tp1679
I44
s(g394
F0.2
tp1680
I50
s(g38
F0.24
tp1681
I51
s(g953
F0.35
tp1682
I52
s(g431
F0.25
tp1683
I51
s(g790
F0.45
tp1684
I50
s(g739
F0.21
tp1685
I53
s(g168
F0.15
tp1686
I52
s(g754
F0.3
tp1687
I52
s(g734
F0.5
tp1688
I51
s(g714
F0.17
tp1689
I51
s(g476
F0.22
tp1690
I51
s(g351
F0.17
tp1691
I52
s(g91
F0.23
tp1692
I50
s(g809
F0.45
tp1693
I51
s(g127
F0.5
tp1694
I51
s(g630
F0.25
tp1695
I52
s(g131
F0.24
tp1696
I51
s(g18
F0.21
tp1697
I52
s(g367
F0.17
tp1698
I53
s(g1
(g5
S'}\x00\x00\x00\x00\x00\x00\x00'
p1699
tp1700
Rp1701
F0.14
tp1702
I51
s(g790
F0.4
tp1703
I50
s(g266
F0.11
tp1704
I47
s(g1095
F0.11
tp1705
I47
s(g62
F0.23
tp1706
I50
s(g156
F0.05
tp1707
I43
s(g70
F0.2
tp1708
I53
s(g400
F0.21
tp1709
I53
s(g305
F0.19
tp1710
I52
s(g1163
F0.15
tp1711
I52
s(g135
F0.45
tp1712
I50
s(g340
F0.5
tp1713
I51
s(g131
F0.18
tp1714
I52
s(g759
F0.0
tp1715
I18
s(g439
F0.5
tp1716
I51
s(g345
F0.19
tp1717
I53
s(g277
F0.15
tp1718
I51
s(g516
F0.2
tp1719
I47
s(g10
F0.17
tp1720
I52
s(g62
F0.17
tp1721
I51
s(g898
F0.2
tp1722
I53
s(g1149
F0.35
tp1723
I51
s(g335
F0.24
tp1724
I51
s(g1095
F0.15
tp1725
I50
s(g809
F0.25
tp1726
I52
s(g898
F0.0
tp1727
I18
s(g119
F0.05
tp1728
I38
s(g62
F0.21
tp1729
I51
s(g139
F0.16
tp1730
I39
s(g939
F0.0
tp1731
I18
s(g489
F0.22
tp1732
I53
s(g107
F0.05
tp1733
I43
s(g754
F0.5
tp1734
I51
s(g115
F0.18
tp1735
I53
s(g262
F0.3
tp1736
I52
s(g58
F0.17
tp1737
I52
s(g246
F0.17
tp1738
I53
s(g26
F0.22
tp1739
I52
s(g236
F0.1
tp1740
I48
s(g620
F0.21
tp1741
I49
s(g182
F0.23
tp1742
I50
s(g82
F0.1
tp1743
I47
s(g894
F0.25
tp1744
I50
s(g809
F0.05
tp1745
I44
s(g583
F0.1
tp1746
I48
s(g1354
F0.16
tp1747
I52
s(g66
F0.3
tp1748
I36
s(g512
F0.3
tp1749
I52
s(g99
F0.25
tp1750
I52
s(g659
F0.05
tp1751
I43
s(g939
F0.05
tp1752
I43
s(g829
F0.12
tp1753
I46
s(g766
F0.25
tp1754
I38
s(g367
F0.19
tp1755
I53
s(g435
F0.23
tp1756
I52
s(g406
F0.3
tp1757
I50
s(g620
F0.24
tp1758
I48
s(g1095
F0.13
tp1759
I49
s(g638
F0.22
tp1760
I52
s(g541
F0.24
tp1761
I48
s(g714
F0.24
tp1762
I50
s(g335
F0.18
tp1763
I52
s(g630
F0.2
tp1764
I53
s(g42
F0.19
tp1765
I52
s(g1149
F0.4
tp1766
I50
s(g453
F0.2
tp1767
I52
s(g119
F0.15
tp1768
I44
s(g978
F0.15
tp1769
I51
s(g26
F0.21
tp1770
I52
s(g331
F0.0
tp1771
I18
s(g58
F0.16
tp1772
I52
s(g642
F0.45
tp1773
I49
s(g50
F0.25
tp1774
I36
s(g431
F0.1
tp1775
I47
s(g674
F0.05
tp1776
I44
s(g340
F0.15
tp1777
I51
s(g998
F0.16
tp1778
I53
s(g46
F0.17
tp1779
I53
s(g489
F0.18
tp1780
I53
s(g127
F0.35
tp1781
I52
s(g208
F0.22
tp1782
I53
s(g541
F0.19
tp1783
I49
s(g674
F0.15
tp1784
I52
s(g58
F0.19
tp1785
I52
s(g739
F0.17
tp1786
I53
s(g682
F0.35
tp1787
I39
s(g521
F0.21
tp1788
I39
s(g319
F0.45
tp1789
I50
s(g160
F0.25
tp1790
I51
s(g220
F0.2
tp1791
I51
s(g194
F0.18
tp1792
I52
s(g583
F0.25
tp1793
I52
s(g1082
F0.14
tp1794
I51
s(g135
F0.4
tp1795
I50
s(g34
F0.05
tp1796
I43
s(g301
F0.3
tp1797
I52
s(g371
F0.0
tp1798
I18
s(g526
F0.21
tp1799
I52
s(g406
F0.05
tp1800
I44
s(g82
F0.5
tp1801
I51
s(g506
F0.45
tp1802
I50
s(g152
F0.15
tp1803
I52
s(g910
F0.15
tp1804
I52
s(g431
F0.3
tp1805
I51
s(g708
F0.45
tp1806
I51
s(g506
F0.35
tp1807
I51
s(g1198
F0.3
tp1808
I52
s(g258
F0.1
tp1809
I48
s(g228
F0.45
tp1810
I48
s(g241
F0.1
tp1811
I47
s(g99
F0.1
tp1812
I48
s(g678
F0.4
tp1813
I51
s(g220
F0.05
tp1814
I43
s(g177
F0.24
tp1815
I50
s(g190
F0.0
tp1816
I18
s(g595
F0.05
tp1817
I43
s(g777
F0.05
tp1818
I43
s(g220
F0.25
tp1819
I50
s(g573
F0.15
tp1820
I52
s(g1
(g5
S'\x9b\x00\x00\x00\x00\x00\x00\x00'
p1821
tp1822
Rp1823
F0.14
tp1824
I51
s(g521
F0.16
tp1825
I38
s(g1082
F0.18
tp1826
I53
s(g550
F0.4
tp1827
I50
s(g164
F0.23
tp1828
I46
s(g579
F0.05
tp1829
I40
s(g536
F0.35
tp1830
I52
s(g532
F0.05
tp1831
I39
s(g103
F0.22
tp1832
I53
s(g168
F0.25
tp1833
I52
s(g340
F0.2
tp1834
I52
s(g123
F0.24
tp1835
I52
s(g186
F0.18
tp1836
I45
s(g383
F0.1
tp1837
I47
s(g1163
F0.3
tp1838
I52
s(g220
F0.3
tp1839
I51
s(g664
F0.15
tp1840
I52
s(g345
F0.2
tp1841
I53
s(g998
F0.21
tp1842
I53
s(g1040
F0.16
tp1843
I53
s(g95
F0.16
tp1844
I52
s(g289
F0.15
tp1845
I52
s(g186
F0.17
tp1846
I45
s(g541
F0.18
tp1847
I49
s(g208
F0.24
tp1848
I52
s(g998
F0.22
tp1849
I53
s(g139
F0.22
tp1850
I40
s(g734
F0.4
tp1851
I51
s(g1149
F0.45
tp1852
I50
s(g939
F0.25
tp1853
I51
s(g978
F0.0
tp1854
I18
s(g1
(g5
S'i\x00\x00\x00\x00\x00\x00\x00'
p1855
tp1856
Rp1857
F0.14
tp1858
I50
s(g659
F0.25
tp1859
I51
s(g82
F0.4
tp1860
I51
s(g345
F0.22
tp1861
I53
s(g910
F0.14
tp1862
I51
s(g512
F0.2
tp1863
I52
s(g359
F0.13
tp1864
I50
s(g739
F0.23
tp1865
I52
s(g335
F0.22
tp1866
I52
s(g480
F0.15
tp1867
I52
s(g1141
F0.5
tp1868
I51
s(g1082
F0.16
tp1869
I53
s(g1095
F0.12
tp1870
I47
s(g58
F0.22
tp1871
I52
s(g678
F0.1
tp1872
I48
s(g630
F0.05
tp1873
I44
s(g599
F0.11
tp1874
I47
s(g236
F0.2
tp1875
I53
s(g467
F0.11
tp1876
I48
s(g620
F0.16
tp1877
I49
s(g1004
F0.1
tp1878
I48
s(g232
F0.2
tp1879
I53
s(g309
F0.14
tp1880
I51
s(g236
F0.25
tp1881
I52
s(g743
F0.35
tp1882
I52
s(g327
F0.05
tp1883
I43
s(g383
F0.4
tp1884
I51
s(g182
F0.24
tp1885
I50
s(g1141
F0.45
tp1886
I51
s(g236
F0.0
tp1887
I18
s(g285
F0.3
tp1888
I52
s.