(dp0
(cnumpy.core.multiarray
scalar
p1
(cnumpy
dtype
p2
(S'i8'
p3
I0
I1
tp4
Rp5
(I3
S'<'
p6
NNNI-1
I-1
I0
tp7
bS'^\x01\x00\x00\x00\x00\x00\x00'
p8
tp9
Rp10
F1.0
tp11
I159
s(g1
(g5
S'S\x01\x00\x00\x00\x00\x00\x00'
p12
tp13
Rp14
F0.49
tp15
I159
s(g1
(g5
S'Z\x00\x00\x00\x00\x00\x00\x00'
p16
tp17
Rp18
F0.0
tp19
I72
s(g1
(g5
S'\x82\x00\x00\x00\x00\x00\x00\x00'
p20
tp21
Rp22
F1.0
tp23
I144
s(g1
(g5
S'J\x01\x00\x00\x00\x00\x00\x00'
p24
tp25
Rp26
F0.3
tp27
I154
s(g1
(g5
S'I\x01\x00\x00\x00\x00\x00\x00'
p28
tp29
Rp30
F0.44
tp31
I159
s(g1
(g5
S'"\x01\x00\x00\x00\x00\x00\x00'
p32
tp33
Rp34
F0.7
tp35
I156
s(g1
(g5
S'\xa0\x00\x00\x00\x00\x00\x00\x00'
p36
tp37
Rp38
F0.3
tp39
I145
s(g1
(g5
S'\xd2\x00\x00\x00\x00\x00\x00\x00'
p40
tp41
Rp42
F0.4
tp43
I154
s(g1
(g5
S'F\x01\x00\x00\x00\x00\x00\x00'
p44
tp45
Rp46
F0.47
tp47
I161
s(g46
F0.44
tp48
I160
s(g1
(g5
S'P\x01\x00\x00\x00\x00\x00\x00'
p49
tp50
Rp51
F0.47
tp52
I159
s(g1
(g5
S'C\x01\x00\x00\x00\x00\x00\x00'
p53
tp54
Rp55
F0.43
tp56
I157
s(g1
(g5
S'\x1e\x00\x00\x00\x00\x00\x00\x00'
p57
tp58
Rp59
F0.5
tp60
I133
s(g1
(g5
S'\x96\x00\x00\x00\x00\x00\x00\x00'
p61
tp62
Rp63
F0.9
tp64
I153
s(g1
(g5
S'Z\x00\x00\x00\x00\x00\x00\x00'
p65
tp66
Rp67
F0.5
tp68
I143
s(g51
F0.48
tp69
I159
s(g1
(g5
S'P\x00\x00\x00\x00\x00\x00\x00'
p70
tp71
Rp72
F0.6
tp73
I146
s(g1
(g5
S'2\x00\x00\x00\x00\x00\x00\x00'
p74
tp75
Rp76
F1.0
tp77
I138
s(g1
(g5
S'N\x01\x00\x00\x00\x00\x00\x00'
p78
tp79
Rp80
F0.46
tp81
I159
s(g72
F0.8
tp82
I146
s(g1
(g5
S'"\x01\x00\x00\x00\x00\x00\x00'
p83
tp84
Rp85
F0.8
tp86
I156
s(g1
(g5
S'M\x01\x00\x00\x00\x00\x00\x00'
p87
tp88
Rp89
F0.45
tp90
I159
s(g51
F0.49
tp91
I159
s(g1
(g5
S'@\x01\x00\x00\x00\x00\x00\x00'
p92
tp93
Rp94
F0.2
tp95
I150
s(g1
(g5
S'\xb4\x00\x00\x00\x00\x00\x00\x00'
p96
tp97
Rp98
F0.9
tp99
I151
s(g1
(g5
S'D\x01\x00\x00\x00\x00\x00\x00'
p100
tp101
Rp102
F0.42
tp103
I157
s(g1
(g5
S'J\x01\x00\x00\x00\x00\x00\x00'
p104
tp105
Rp106
F0.49
tp107
I160
s(g1
(g5
S'\x90\x01\x00\x00\x00\x00\x00\x00'
p108
tp109
Rp110
F0.4
tp111
I155
s(g1
(g5
S'B\x01\x00\x00\x00\x00\x00\x00'
p112
tp113
Rp114
F0.44
tp115
I157
s(g1
(g5
S'(\x00\x00\x00\x00\x00\x00\x00'
p116
tp117
Rp118
F0.7
tp119
I137
s(g1
(g5
S'|\x01\x00\x00\x00\x00\x00\x00'
p120
tp121
Rp122
F0.3
tp123
I150
s(g1
(g5
S'"\x01\x00\x00\x00\x00\x00\x00'
p124
tp125
Rp126
F0.5
tp127
I156
s(g1
(g5
S'F\x00\x00\x00\x00\x00\x00\x00'
p128
tp129
Rp130
F0.2
tp131
I132
s(g18
F0.6
tp132
I143
s(g55
F0.45
tp133
I159
s(g22
F0.4
tp134
I142
s(g1
(g5
S'J\x01\x00\x00\x00\x00\x00\x00'
p135
tp136
Rp137
F0.0
tp138
I72
s(g1
(g5
S'<\x00\x00\x00\x00\x00\x00\x00'
p139
tp140
Rp141
F0.2
tp142
I131
s(g1
(g5
S'(\x00\x00\x00\x00\x00\x00\x00'
p143
tp144
Rp145
F0.5
tp146
I137
s(g14
F0.48
tp147
I159
s(g51
F0.46
tp148
I158
s(g1
(g5
S'E\x01\x00\x00\x00\x00\x00\x00'
p149
tp150
Rp151
F0.41
tp152
I157
s(g1
(g5
S'T\x01\x00\x00\x00\x00\x00\x00'
p153
tp154
Rp155
F0.47
tp156
I159
s(g1
(g5
S'\xbe\x00\x00\x00\x00\x00\x00\x00'
p157
tp158
Rp159
F0.5
tp160
I152
s(g1
(g5
S'\xfa\x00\x00\x00\x00\x00\x00\x00'
p161
tp162
Rp163
F0.0
tp164
I72
s(g1
(g5
S'\xe6\x00\x00\x00\x00\x00\x00\x00'
p165
tp166
Rp167
F0.8
tp168
I157
s(g85
F1.0
tp169
I156
s(g1
(g5
S'A\x01\x00\x00\x00\x00\x00\x00'
p170
tp171
Rp172
F0.43
tp173
I157
s(g114
F0.49
tp174
I158
s(g1
(g5
S'(\x00\x00\x00\x00\x00\x00\x00'
p175
tp176
Rp177
F1.0
tp178
I137
s(g102
F0.49
tp179
I160
s(g1
(g5
S'h\x01\x00\x00\x00\x00\x00\x00'
p180
tp181
Rp182
F0.4
tp183
I153
s(g1
(g5
S'@\x01\x00\x00\x00\x00\x00\x00'
p184
tp185
Rp186
F0.43
tp187
I157
s(g1
(g5
S'\xc8\x00\x00\x00\x00\x00\x00\x00'
p188
tp189
Rp190
F0.5
tp191
I154
s(g102
F0.45
tp192
I160
s(g110
F0.8
tp193
I158
s(g1
(g5
S'G\x01\x00\x00\x00\x00\x00\x00'
p194
tp195
Rp196
F0.42
tp197
I157
s(g1
(g5
S'\x86\x01\x00\x00\x00\x00\x00\x00'
p198
tp199
Rp200
F0.5
tp201
I158
s(g1
(g5
S'r\x01\x00\x00\x00\x00\x00\x00'
p202
tp203
Rp204
F0.8
tp205
I155
s(g1
(g5
S'\x04\x01\x00\x00\x00\x00\x00\x00'
p206
tp207
Rp208
F0.3
tp209
I151
s(g114
F0.47
tp210
I158
s(g42
F1.0
tp211
I158
s(g1
(g5
S'K\x01\x00\x00\x00\x00\x00\x00'
p212
tp213
Rp214
F0.44
tp215
I158
s(g89
F0.42
tp216
I156
s(g1
(g5
S'\x8c\x00\x00\x00\x00\x00\x00\x00'
p217
tp218
Rp219
F0.0
tp220
I72
s(g89
F0.43
tp221
I157
s(g1
(g5
S'O\x01\x00\x00\x00\x00\x00\x00'
p222
tp223
Rp224
F0.41
tp225
I155
s(g1
(g5
S'd\x00\x00\x00\x00\x00\x00\x00'
p226
tp227
Rp228
F0.2
tp229
I139
s(g1
(g5
S'H\x01\x00\x00\x00\x00\x00\x00'
p230
tp231
Rp232
F0.45
tp233
I160
s(g1
(g5
S'\x90\x01\x00\x00\x00\x00\x00\x00'
p234
tp235
Rp236
F0.5
tp237
I158
s(g1
(g5
S'\x14\x00\x00\x00\x00\x00\x00\x00'
p238
tp239
Rp240
F0.9
tp241
I124
s(g114
F0.42
tp242
I155
s(g51
F0.45
tp243
I158
s(g1
(g5
S'd\x00\x00\x00\x00\x00\x00\x00'
p244
tp245
Rp246
F0.5
tp247
I146
s(g46
F0.41
tp248
I158
s(g1
(g5
S'\x1e\x00\x00\x00\x00\x00\x00\x00'
p249
tp250
Rp251
F0.2
tp252
I126
s(g1
(g5
S'\x96\x00\x00\x00\x00\x00\x00\x00'
p253
tp254
Rp255
F0.4
tp256
I150
s(g80
F0.48
tp257
I159
s(g214
F0.46
tp258
I159
s(g72
F0.2
tp259
I137
s(g155
F0.44
tp260
I157
s(g1
(g5
S'r\x01\x00\x00\x00\x00\x00\x00'
p261
tp262
Rp263
F0.9
tp264
I155
s(g141
F0.0
tp265
I72
s(g1
(g5
S'\x1e\x00\x00\x00\x00\x00\x00\x00'
p266
tp267
Rp268
F0.9
tp269
I133
s(g224
F0.42
tp270
I155
s(g14
F0.43
tp271
I156
s(g1
(g5
S'2\x00\x00\x00\x00\x00\x00\x00'
p272
tp273
Rp274
F0.3
tp275
I132
s(g106
F0.44
tp276
I159
s(g1
(g5
S',\x01\x00\x00\x00\x00\x00\x00'
p277
tp278
Rp279
F0.0
tp280
I72
s(g1
(g5
S'\xfa\x00\x00\x00\x00\x00\x00\x00'
p281
tp282
Rp283
F0.3
tp284
I149
s(g1
(g5
S'\x86\x01\x00\x00\x00\x00\x00\x00'
p285
tp286
Rp287
F0.8
tp288
I158
s(g1
(g5
S'F\x00\x00\x00\x00\x00\x00\x00'
p289
tp290
Rp291
F0.3
tp292
I133
s(g228
F0.6
tp293
I146
s(g1
(g5
S'Q\x01\x00\x00\x00\x00\x00\x00'
p294
tp295
Rp296
F0.49
tp297
I159
s(g1
(g5
S'\x90\x01\x00\x00\x00\x00\x00\x00'
p298
tp299
Rp300
F0.7
tp301
I158
s(g1
(g5
S'\x18\x01\x00\x00\x00\x00\x00\x00'
p302
tp303
Rp304
F0.3
tp305
I150
s(g1
(g5
S'T\x01\x00\x00\x00\x00\x00\x00'
p306
tp307
Rp308
F0.4
tp309
I155
s(g1
(g5
S'\x14\x00\x00\x00\x00\x00\x00\x00'
p310
tp311
Rp312
F1.0
tp313
I124
s(g22
F0.8
tp314
I144
s(g22
F0.6
tp315
I144
s(g1
(g5
S'\xd2\x00\x00\x00\x00\x00\x00\x00'
p316
tp317
Rp318
F0.1
tp319
I141
s(g1
(g5
S'P\x00\x00\x00\x00\x00\x00\x00'
p320
tp321
Rp322
F0.3
tp323
I140
s(g291
F0.1
tp324
I127
s(g130
F0.4
tp325
I136
s(g304
F0.7
tp326
I155
s(g172
F0.45
tp327
I159
s(g1
(g5
S'\x04\x01\x00\x00\x00\x00\x00\x00'
p328
tp329
Rp330
F0.4
tp331
I154
s(g1
(g5
S'\xb4\x00\x00\x00\x00\x00\x00\x00'
p332
tp333
Rp334
F0.2
tp335
I143
s(g1
(g5
S'R\x01\x00\x00\x00\x00\x00\x00'
p336
tp337
Rp338
F0.42
tp339
I155
s(g1
(g5
S'n\x00\x00\x00\x00\x00\x00\x00'
p340
tp341
Rp342
F0.4
tp343
I142
s(g204
F1.0
tp344
I155
s(g308
F0.2
tp345
I149
s(g130
F0.0
tp346
I72
s(g118
F0.3
tp347
I131
s(g268
F0.3
tp348
I127
s(g102
F0.46
tp349
I160
s(g308
F0.8
tp350
I159
s(g1
(g5
S'\x86\x01\x00\x00\x00\x00\x00\x00'
p351
tp352
Rp353
F0.3
tp354
I151
s(g1
(g5
S'\xf0\x00\x00\x00\x00\x00\x00\x00'
p355
tp356
Rp357
F0.7
tp358
I157
s(g287
F0.6
tp359
I158
s(g30
F0.42
tp360
I157
s(g1
(g5
S'\x0e\x01\x00\x00\x00\x00\x00\x00'
p361
tp362
Rp363
F0.4
tp364
I153
s(g263
F0.3
tp365
I148
s(g151
F0.49
tp366
I160
s(g30
F0.48
tp367
I160
s(g10
F0.8
tp368
I159
s(g318
F0.7
tp369
I158
s(g1
(g5
S'\xa0\x00\x00\x00\x00\x00\x00\x00'
p370
tp371
Rp372
F0.8
tp373
I152
s(g240
F0.1
tp374
I116
s(g46
F0.46
tp375
I161
s(g46
F0.42
tp376
I158
s(g1
(g5
S'\xdc\x00\x00\x00\x00\x00\x00\x00'
p377
tp378
Rp379
F0.0
tp380
I72
s(g30
F0.47
tp381
I160
s(g1
(g5
S'L\x01\x00\x00\x00\x00\x00\x00'
p382
tp383
Rp384
F0.46
tp385
I159
s(g330
F1.0
tp386
I157
s(g46
F0.43
tp387
I159
s(g1
(g5
S'n\x00\x00\x00\x00\x00\x00\x00'
p388
tp389
Rp390
F0.5
tp391
I144
s(g63
F0.1
tp392
I137
s(g122
F0.1
tp393
I138
s(g155
F0.42
tp394
I155
s(g287
F0.2
tp395
I147
s(g1
(g5
S'x\x00\x00\x00\x00\x00\x00\x00'
p396
tp397
Rp398
F0.7
tp399
I144
s(g172
F0.44
tp400
I158
s(g214
F0.43
tp401
I157
s(g106
F0.45
tp402
I160
s(g1
(g5
S'\xf0\x00\x00\x00\x00\x00\x00\x00'
p403
tp404
Rp405
F0.5
tp406
I157
s(g357
F0.9
tp407
I157
s(g163
F0.8
tp408
I155
s(g255
F1.0
tp409
I153
s(g1
(g5
S'\x82\x00\x00\x00\x00\x00\x00\x00'
p410
tp411
Rp412
F0.1
tp413
I135
s(g1
(g5
S'x\x00\x00\x00\x00\x00\x00\x00'
p414
tp415
Rp416
F0.5
tp417
I144
s(g14
F0.45
tp418
I158
s(g1
(g5
S'@\x01\x00\x00\x00\x00\x00\x00'
p419
tp420
Rp421
F0.1
tp422
I144
s(g334
F1.0
tp423
I151
s(g1
(g5
S'\n\x00\x00\x00\x00\x00\x00\x00'
p424
tp425
Rp426
F0.6
tp427
I120
s(g1
(g5
S'6\x01\x00\x00\x00\x00\x00\x00'
p428
tp429
Rp430
F0.5
tp431
I157
s(g167
F0.6
tp432
I157
s(g14
F0.44
tp433
I157
s(g141
F0.6
tp434
I140
s(g1
(g5
S'|\x01\x00\x00\x00\x00\x00\x00'
p435
tp436
Rp437
F0.8
tp438
I157
s(g137
F0.2
tp439
I150
s(g10
F0.6
tp440
I159
s(g102
F0.47
tp441
I160
s(g338
F0.48
tp442
I159
s(g1
(g5
S'\xaa\x00\x00\x00\x00\x00\x00\x00'
p443
tp444
Rp445
F0.7
tp446
I152
s(g204
F0.2
tp447
I145
s(g80
F0.41
tp448
I156
s(g1
(g5
S'x\x00\x00\x00\x00\x00\x00\x00'
p449
tp450
Rp451
F0.6
tp452
I144
s(g228
F1.0
tp453
I146
s(g208
F0.1
tp454
I141
s(g338
F0.49
tp455
I159
s(g224
F0.47
tp456
I159
s(g251
F0.0
tp457
I72
s(g106
F0.42
tp458
I157
s(g363
F0.6
tp459
I156
s(g353
F0.7
tp460
I158
s(g1
(g5
S'T\x01\x00\x00\x00\x00\x00\x00'
p461
tp462
Rp463
F0.9
tp464
I159
s(g182
F0.8
tp465
I158
s(g300
F0.9
tp466
I158
s(g141
F0.4
tp467
I135
s(g1
(g5
S'\x18\x01\x00\x00\x00\x00\x00\x00'
p468
tp469
Rp470
F0.6
tp471
I155
s(g89
F0.46
tp472
I159
s(g240
F0.3
tp473
I121
s(g208
F0.7
tp474
I157
s(g186
F0.44
tp475
I158
s(g437
F0.0
tp476
I72
s(g1
(g5
S'^\x01\x00\x00\x00\x00\x00\x00'
p477
tp478
Rp479
F0.9
tp480
I159
s(g1
(g5
S'\xbe\x00\x00\x00\x00\x00\x00\x00'
p481
tp482
Rp483
F0.4
tp484
I149
s(g372
F0.0
tp485
I72
s(g279
F0.6
tp486
I159
s(g1
(g5
S'\xc8\x00\x00\x00\x00\x00\x00\x00'
p487
tp488
Rp489
F0.4
tp490
I151
s(g155
F0.48
tp491
I159
s(g451
F0.8
tp492
I144
s(g1
(g5
S'6\x01\x00\x00\x00\x00\x00\x00'
p493
tp494
Rp495
F0.2
tp496
I148
s(g412
F0.7
tp497
I144
s(g224
F0.43
tp498
I156
s(g1
(g5
S'\x8c\x00\x00\x00\x00\x00\x00\x00'
p499
tp500
Rp501
F0.1
tp502
I137
s(g46
F0.45
tp503
I161
s(g102
F0.44
tp504
I159
s(g232
F0.42
tp505
I157
s(g308
F1.0
tp506
I159
s(g1
(g5
S'\x04\x01\x00\x00\x00\x00\x00\x00'
p507
tp508
Rp509
F0.5
tp510
I157
s(g342
F0.6
tp511
I144
s(g1
(g5
S'\xe6\x00\x00\x00\x00\x00\x00\x00'
p512
tp513
Rp514
F0.7
tp515
I157
s(g72
F0.0
tp516
I72
s(g363
F0.0
tp517
I72
s(g177
F0.8
tp518
I137
s(g1
(g5
S'Z\x00\x00\x00\x00\x00\x00\x00'
p519
tp520
Rp521
F0.9
tp522
I143
s(g384
F0.41
tp523
I156
s(g228
F0.4
tp524
I143
s(g279
F0.4
tp525
I156
s(g521
F0.1
tp526
I131
s(g30
F0.46
tp527
I160
s(g1
(g5
S'd\x00\x00\x00\x00\x00\x00\x00'
p528
tp529
Rp530
F0.7
tp531
I146
s(g1
(g5
S'6\x01\x00\x00\x00\x00\x00\x00'
p532
tp533
Rp534
F0.3
tp535
I151
s(g110
F0.6
tp536
I158
s(g521
F0.3
tp537
I137
s(g163
F0.2
tp538
I145
s(g501
F0.3
tp539
I143
s(g483
F0.0
tp540
I72
s(g167
F0.2
tp541
I147
s(g1
(g5
S'n\x00\x00\x00\x00\x00\x00\x00'
p542
tp543
Rp544
F0.9
tp545
I145
s(g214
F0.45
tp546
I159
s(g196
F0.45
tp547
I160
s(g110
F0.0
tp548
I72
s(g1
(g5
S'J\x01\x00\x00\x00\x00\x00\x00'
p549
tp550
Rp551
F0.5
tp552
I160
s(g163
F0.6
tp553
I155
s(g155
F0.49
tp554
I159
s(g22
F0.2
tp555
I138
s(g214
F0.47
tp556
I159
s(g1
(g5
S'\xaa\x00\x00\x00\x00\x00\x00\x00'
p557
tp558
Rp559
F0.2
tp560
I144
s(g287
F0.4
tp561
I154
s(g155
F0.43
tp562
I156
s(g1
(g5
S',\x01\x00\x00\x00\x00\x00\x00'
p563
tp564
Rp565
F0.9
tp566
I158
s(g163
F0.4
tp567
I152
s(g177
F0.2
tp568
I132
s(g342
F0.0
tp569
I72
s(g214
F0.42
tp570
I156
s(g1
(g5
S'\xbe\x00\x00\x00\x00\x00\x00\x00'
p571
tp572
Rp573
F0.7
tp574
I152
s(g437
F0.2
tp575
I147
s(g312
F0.4
tp576
I123
s(g479
F0.3
tp577
I151
s(g94
F0.0
tp578
I72
s(g330
F0.2
tp579
I146
s(g1
(g5
S'\xe6\x00\x00\x00\x00\x00\x00\x00'
p580
tp581
Rp582
F0.5
tp583
I157
s(g214
F0.49
tp584
I159
s(g1
(g5
S'<\x00\x00\x00\x00\x00\x00\x00'
p585
tp586
Rp587
F0.7
tp588
I140
s(g300
F0.3
tp589
I152
s(g463
F0.3
tp590
I152
s(g353
F0.1
tp591
I138
s(g1
(g5
S'\x0e\x01\x00\x00\x00\x00\x00\x00'
p592
tp593
Rp594
F0.9
tp595
I156
s(g130
F1.0
tp596
I139
s(g1
(g5
S'\xf0\x00\x00\x00\x00\x00\x00\x00'
p597
tp598
Rp599
F0.0
tp600
I72
s(g318
F0.9
tp601
I158
s(g470
F1.0
tp602
I155
s(g80
F0.49
tp603
I159
s(g334
F0.8
tp604
I151
s(g398
F0.9
tp605
I144
s(g263
F0.7
tp606
I155
s(g445
F0.1
tp607
I138
s(g196
F0.46
tp608
I160
s(g1
(g5
S'\n\x00\x00\x00\x00\x00\x00\x00'
p609
tp610
Rp611
F0.5
tp612
I120
s(g122
F0.7
tp613
I157
s(g587
F0.9
tp614
I140
s(g514
F0.9
tp615
I157
s(g10
F0.0
tp616
I72
s(g80
F0.47
tp617
I159
s(g489
F1.0
tp618
I154
s(g287
F1.0
tp619
I158
s(g1
(g5
S'\xc8\x00\x00\x00\x00\x00\x00\x00'
p620
tp621
Rp622
F0.3
tp623
I148
s(g1
(g5
S'\n\x00\x00\x00\x00\x00\x00\x00'
p624
tp625
Rp626
F0.9
tp627
I120
s(g279
F0.2
tp628
I150
s(g22
F0.0
tp629
I72
s(g1
(g5
S'\xdc\x00\x00\x00\x00\x00\x00\x00'
p630
tp631
Rp632
F0.3
tp633
I150
s(g214
F0.48
tp634
I159
s(g483
F0.8
tp635
I152
s(g283
F0.7
tp636
I155
s(g599
F0.6
tp637
I157
s(g1
(g5
S'2\x00\x00\x00\x00\x00\x00\x00'
p638
tp639
Rp640
F0.5
tp641
I137
s(g426
F0.4
tp642
I118
s(g1
(g5
S'\xd2\x00\x00\x00\x00\x00\x00\x00'
p643
tp644
Rp645
F0.5
tp646
I157
s(g451
F0.4
tp647
I142
s(g626
F0.3
tp648
I116
s(g55
F0.46
tp649
I159
s(g451
F1.0
tp650
I144
s(g495
F1.0
tp651
I156
s(g1
(g5
S'T\x01\x00\x00\x00\x00\x00\x00'
p652
tp653
Rp654
F0.5
tp655
I159
s(g76
F0.0
tp656
I72
s(g304
F0.9
tp657
I155
s(g384
F0.43
tp658
I157
s(g268
F0.1
tp659
I121
s(g42
F0.2
tp660
I147
s(g463
F0.1
tp661
I140
s(g155
F0.41
tp662
I155
s(g338
F0.44
tp663
I157
s(g251
F0.6
tp664
I133
s(g353
F0.9
tp665
I158
s(g599
F0.8
tp666
I157
s(g599
F0.4
tp667
I154
s(g559
F0.8
tp668
I152
s(g463
F0.7
tp669
I159
s(g300
F0.1
tp670
I141
s(g94
F0.8
tp671
I158
s(g167
F1.0
tp672
I157
s(g255
F0.2
tp673
I142
s(g544
F0.1
tp674
I135
s(g426
F1.0
tp675
I120
s(g514
F0.3
tp676
I151
s(g94
F0.6
tp677
I158
s(g296
F0.48
tp678
I159
s(g587
F0.3
tp679
I131
s(g1
(g5
S',\x01\x00\x00\x00\x00\x00\x00'
p680
tp681
Rp682
F0.5
tp683
I159
s(g151
F0.47
tp684
I160
s(g186
F0.41
tp685
I156
s(g632
F0.1
tp686
I140
s(g470
F0.2
tp687
I147
s(g102
F0.48
tp688
I160
s(g114
F0.43
tp689
I156
s(g437
F0.4
tp690
I153
s(g224
F0.46
tp691
I158
s(g76
F0.8
tp692
I138
s(g196
F0.44
tp693
I159
s(g1
(g5
S'\xfa\x00\x00\x00\x00\x00\x00\x00'
p694
tp695
Rp696
F0.5
tp697
I155
s(g308
F0.6
tp698
I159
s(g322
F0.9
tp699
I146
s(g372
F0.4
tp700
I148
s(g363
F0.8
tp701
I156
s(g421
F0.3
tp702
I153
s(g412
F0.9
tp703
I144
s(g182
F1.0
tp704
I158
s(g495
F0.8
tp705
I156
s(g26
F0.1
tp706
I143
s(g85
F0.0
tp707
I72
s(g106
F0.48
tp708
I160
s(g489
F0.8
tp709
I154
s(g1
(g5
S'\x14\x00\x00\x00\x00\x00\x00\x00'
p710
tp711
Rp712
F0.5
tp713
I124
s(g110
F0.2
tp714
I148
s(g106
F0.47
tp715
I160
s(g224
F0.49
tp716
I159
s(g530
F0.9
tp717
I146
s(g151
F0.45
tp718
I160
s(g214
F0.41
tp719
I156
s(g186
F0.45
tp720
I159
s(g42
F0.0
tp721
I72
s(g89
F0.41
tp722
I156
s(g204
F0.6
tp723
I155
s(g85
F0.4
tp724
I153
s(g63
F0.7
tp725
I153
s(g219
F0.4
tp726
I145
s(g46
F0.49
tp727
I161
s(g622
F0.1
tp728
I139
s(g182
F0.2
tp729
I147
s(g268
F0.7
tp730
I133
s(g30
F0.45
tp731
I160
s(g1
(g5
S'^\x01\x00\x00\x00\x00\x00\x00'
p732
tp733
Rp734
F0.5
tp735
I158
s(g232
F0.44
tp736
I159
s(g312
F0.6
tp737
I124
s(g196
F0.41
tp738
I157
s(g338
F0.47
tp739
I159
s(g204
F0.4
tp740
I151
s(g559
F1.0
tp741
I152
s(g151
F0.43
tp742
I158
s(g587
F0.1
tp743
I127
s(g1
(g5
S'h\x01\x00\x00\x00\x00\x00\x00'
p744
tp745
Rp746
F0.5
tp747
I158
s(g208
F0.9
tp748
I157
s(g398
F0.3
tp749
I140
s(g279
F0.8
tp750
I158
s(g151
F0.48
tp751
I160
s(g186
F0.47
tp752
I159
s(g151
F0.42
tp753
I157
s(g89
F0.44
tp754
I158
s(g80
F0.43
tp755
I157
s(g186
F0.46
tp756
I159
s(g1
(g5
S'h\x01\x00\x00\x00\x00\x00\x00'
p757
tp758
Rp759
F0.7
tp760
I158
s(g384
F0.48
tp761
I159
s(g18
F1.0
tp762
I143
s(g1
(g5
S'\x82\x00\x00\x00\x00\x00\x00\x00'
p763
tp764
Rp765
F0.5
tp766
I144
s(g186
F0.48
tp767
I159
s(g312
F0.0
tp768
I72
s(g338
F0.45
tp769
I158
s(g34
F0.3
tp770
I150
s(g89
F0.47
tp771
I159
s(g263
F0.1
tp772
I137
s(g98
F0.7
tp773
I151
s(g151
F0.46
tp774
I160
s(g426
F0.8
tp775
I120
s(g224
F0.48
tp776
I159
s(g318
F0.3
tp777
I151
s(g204
F0.0
tp778
I72
s(g172
F0.42
tp779
I156
s(g18
F0.8
tp780
I143
s(g530
F0.1
tp781
I134
s(g118
F0.9
tp782
I137
s(g330
F0.6
tp783
I157
s(g118
F0.1
tp784
I124
s(g357
F0.3
tp785
I151
s(g232
F0.41
tp786
I157
s(g296
F0.47
tp787
I159
s(g334
F0.6
tp788
I151
s(g421
F0.7
tp789
I158
s(g224
F0.44
tp790
I157
s(g322
F0.1
tp791
I130
s(g196
F0.47
tp792
I160
s(g1
(g5
S'\xaa\x00\x00\x00\x00\x00\x00\x00'
p793
tp794
Rp795
F0.5
tp796
I152
s(g137
F1.0
tp797
I159
s(g251
F0.4
tp798
I130
s(g14
F0.47
tp799
I159
s(g102
F0.43
tp800
I158
s(g330
F0.0
tp801
I72
s(g357
F0.1
tp802
I140
s(g594
F0.3
tp803
I149
s(g63
F0.3
tp804
I146
s(g102
F0.41
tp805
I157
s(g296
F0.43
tp806
I156
s(g514
F0.1
tp807
I139
s(g172
F0.46
tp808
I159
s(g451
F0.2
tp809
I138
s(g196
F0.49
tp810
I160
s(g172
F0.41
tp811
I156
s(g85
F0.2
tp812
I147
s(g155
F0.45
tp813
I158
s(g163
F1.0
tp814
I155
s(g1
(g5
S'r\x01\x00\x00\x00\x00\x00\x00'
p815
tp816
Rp817
F0.5
tp818
I155
s(g89
F0.48
tp819
I159
s(g296
F0.45
tp820
I158
s(g172
F0.48
tp821
I159
s(g334
F0.0
tp822
I72
s(g384
F0.47
tp823
I159
s(g14
F0.41
tp824
I155
s(g89
F0.49
tp825
I159
s(g106
F0.46
tp826
I160
s(g51
F0.44
tp827
I157
s(g72
F0.4
tp828
I143
s(g565
F0.1
tp829
I144
s(g130
F0.8
tp830
I139
s(g80
F0.45
tp831
I159
s(g1
(g5
S'\x8c\x00\x00\x00\x00\x00\x00\x00'
p832
tp833
Rp834
F0.5
tp835
I148
s(g42
F0.6
tp836
I158
s(g141
F0.8
tp837
I140
s(g1
(g5
S'\x18\x01\x00\x00\x00\x00\x00\x00'
p838
tp839
Rp840
F0.5
tp841
I155
s(g330
F0.8
tp842
I157
s(g334
F0.4
tp843
I148
s(g565
F0.7
tp844
I158
s(g228
F0.0
tp845
I72
s(g291
F0.9
tp846
I139
s(g219
F1.0
tp847
I148
s(g76
F0.6
tp848
I137
s(g296
F0.44
tp849
I157
s(g479
F0.7
tp850
I159
s(g55
F0.48
tp851
I159
s(g479
F0.1
tp852
I138
s(g312
F0.8
tp853
I124
s(g137
F0.8
tp854
I159
s(g379
F0.2
tp855
I146
s(g137
F0.4
tp856
I157
s(g141
F1.0
tp857
I140
s(g224
F0.45
tp858
I158
s(g51
F0.42
tp859
I155
s(g632
F0.7
tp860
I157
s(g46
F0.48
tp861
I161
s(g14
F0.46
tp862
I158
s(g177
F0.6
tp863
I137
s(g495
F0.6
tp864
I157
s(g219
F0.6
tp865
I148
s(g51
F0.43
tp866
I156
s(g312
F0.2
tp867
I121
s(g177
F0.4
tp868
I133
s(g626
F0.1
tp869
I108
s(g594
F0.1
tp870
I142
s(g521
F0.7
tp871
I143
s(g296
F0.41
tp872
I155
s(g34
F0.9
tp873
I156
s(g489
F0.6
tp874
I154
s(g426
F0.2
tp875
I111
s(g308
F0.0
tp876
I72
s(g274
F0.1
tp877
I126
s(g255
F0.8
tp878
I153
s(g251
F0.8
tp879
I133
s(g338
F0.46
tp880
I158
s(g622
F0.7
tp881
I154
s(g534
F0.7
tp882
I156
s(g232
F0.48
tp883
I160
s(g232
F0.46
tp884
I160
s(g421
F0.9
tp885
I158
s(g1
(g5
S'|\x01\x00\x00\x00\x00\x00\x00'
p886
tp887
Rp888
F0.5
tp889
I157
s(g219
F0.2
tp890
I140
s(g98
F0.3
tp891
I145
s(g279
F1.0
tp892
I158
s(g177
F0.0
tp893
I72
s(g1
(g5
S'\x96\x00\x00\x00\x00\x00\x00\x00'
p894
tp895
Rp896
F0.5
tp897
I153
s(g42
F0.8
tp898
I158
s(g167
F0.4
tp899
I154
s(g759
F0.1
tp900
I138
s(g483
F0.2
tp901
I142
s(g55
F0.42
tp902
I156
s(g573
F0.3
tp903
I146
s(g76
F0.2
tp904
I130
s(g379
F1.0
tp905
I157
s(g384
F0.42
tp906
I156
s(g255
F0.0
tp907
I72
s(g483
F0.6
tp908
I152
s(g196
F0.48
tp909
I160
s(g38
F0.7
tp910
I152
s(g594
F0.7
tp911
I156
s(g80
F0.42
tp912
I156
s(g398
F0.1
tp913
I136
s(g172
F0.47
tp914
I159
s(g495
F0.4
tp915
I154
s(g155
F0.46
tp916
I158
s(g10
F0.4
tp917
I154
s(g219
F0.8
tp918
I148
s(g565
F0.3
tp919
I153
s(g1
(g5
S'\xdc\x00\x00\x00\x00\x00\x00\x00'
p920
tp921
Rp922
F0.5
tp923
I156
s(g232
F0.49
tp924
I160
s(g759
F0.3
tp925
I150
s(g1
(g5
S'<\x00\x00\x00\x00\x00\x00\x00'
p926
tp927
Rp928
F0.5
tp929
I140
s(g445
F0.3
tp930
I146
s(g342
F0.8
tp931
I144
s(g114
F0.45
tp932
I158
s(g379
F0.6
tp933
I157
s(g122
F0.9
tp934
I157
s(g30
F0.43
tp935
I158
s(g296
F0.46
tp936
I158
s(g38
F0.9
tp937
I152
s(g26
F0.9
tp938
I159
s(g137
F0.6
tp939
I159
s(g372
F0.6
tp940
I151
s(g437
F0.6
tp941
I157
s(g632
F0.9
tp942
I157
s(g55
F0.41
tp943
I156
s(g251
F1.0
tp944
I133
s(g106
F0.43
tp945
I158
s(g544
F0.7
tp946
I144
s(g489
F0.0
tp947
I72
s(g445
F0.9
tp948
I152
s(g287
F0.0
tp949
I72
s(g759
F0.9
tp950
I158
s(g186
F0.49
tp951
I159
s(g114
F0.48
tp952
I158
s(g283
F0.1
tp953
I139
s(g283
F0.9
tp954
I155
s(g559
F0.4
tp955
I149
s(g18
F0.2
tp956
I135
s(g363
F0.2
tp957
I146
s(g38
F0.1
tp958
I138
s(g470
F0.8
tp959
I155
s(g437
F1.0
tp960
I157
s(g255
F0.6
tp961
I153
s(g573
F0.9
tp962
I152
s(g30
F0.41
tp963
I157
s(g451
F0.0
tp964
I72
s(g80
F0.44
tp965
I158
s(g495
F0.0
tp966
I72
s(g338
F0.43
tp967
I156
s(g372
F1.0
tp968
I152
s(g274
F0.7
tp969
I138
s(g559
F0.0
tp970
I72
s(g151
F0.44
tp971
I159
s(g1
(g5
S'F\x00\x00\x00\x00\x00\x00\x00'
p972
tp973
Rp974
F0.5
tp975
I139
s(g182
F0.6
tp976
I158
s(g167
F0.0
tp977
I72
s(g72
F1.0
tp978
I146
s(g363
F1.0
tp979
I156
s(g530
F0.3
tp980
I141
s(g98
F0.1
tp981
I137
s(g1
(g5
S'@\x01\x00\x00\x00\x00\x00\x00'
p982
tp983
Rp984
F0.5
tp985
I159
s(g426
F0.0
tp986
I72
s(g232
F0.43
tp987
I158
s(g501
F0.7
tp988
I148
s(g384
F0.45
tp989
I159
s(g559
F0.6
tp990
I152
s(g534
F0.1
tp991
I142
s(g489
F0.2
tp992
I144
s(g342
F0.2
tp993
I138
s(g483
F1.0
tp994
I152
s(g544
F0.3
tp995
I140
s(g182
F0.0
tp996
I72
s(g106
F0.41
tp997
I157
s(g626
F0.7
tp998
I120
s(g30
F0.49
tp999
I160
s(g110
F1.0
tp1000
I158
s(g622
F0.9
tp1001
I154
s(g1
(g5
S'P\x00\x00\x00\x00\x00\x00\x00'
p1002
tp1003
Rp1004
F0.5
tp1005
I146
s(g85
F0.6
tp1006
I156
s(g51
F0.41
tp1007
I155
s(g470
F0.4
tp1008
I153
s(g573
F0.1
tp1009
I136
s(g18
F0.4
tp1010
I140
s(g1
(g5
S'\x0e\x01\x00\x00\x00\x00\x00\x00'
p1011
tp1012
Rp1013
F0.5
tp1014
I156
s(g240
F0.7
tp1015
I124
s(g501
F0.9
tp1016
I148
s(g534
F0.9
tp1017
I156
s(g342
F1.0
tp1018
I145
s(g34
F0.1
tp1019
I142
s(g379
F0.4
tp1020
I153
s(g55
F0.47
tp1021
I159
s(g94
F1.0
tp1022
I158
s(g470
F0.0
tp1023
I72
s(g196
F0.43
tp1024
I158
s(g304
F0.1
tp1025
I142
s(g291
F0.7
tp1026
I139
s(g26
F0.7
tp1027
I159
s(g14
F0.42
tp1028
I155
s(g338
F0.41
tp1029
I155
s(g114
F0.41
tp1030
I155
s(g186
F0.42
tp1031
I156
s(g10
F0.2
tp1032
I147
s(g599
F0.2
tp1033
I146
s(g94
F0.4
tp1034
I156
s(g172
F0.49
tp1035
I159
s(g55
F0.49
tp1036
I159
s(g55
F0.44
tp1037
I158
s(g599
F1.0
tp1038
I157
s(g296
F0.42
tp1039
I155
s(g274
F0.9
tp1040
I138
s(g130
F0.6
tp1041
I139
s(g1
(g5
S'\xb4\x00\x00\x00\x00\x00\x00\x00'
p1042
tp1043
Rp1044
F0.5
tp1045
I151
s(g232
F0.47
tp1046
I160
s(g384
F0.49
tp1047
I159
s(g228
F0.8
tp1048
I146
s(g114
F0.46
tp1049
I158
s(g1
(g5
S'\xa0\x00\x00\x00\x00\x00\x00\x00'
p1050
tp1051
Rp1052
F0.5
tp1053
I151
s(g379
F0.8
tp1054
I157
s(g76
F0.4
tp1055
I134
s(g322
F0.7
tp1056
I146
s(g384
F0.44
tp1057
I158
s(g372
F0.2
tp1058
I143
s(g412
F0.3
tp1059
I140
s.