(dp0
(cnumpy.core.multiarray
scalar
p1
(cnumpy
dtype
p2
(S'i8'
p3
I0
I1
tp4
Rp5
(I3
S'<'
p6
NNNI-1
I-1
I0
tp7
bS'Z\x00\x00\x00\x00\x00\x00\x00'
p8
tp9
Rp10
F0.0
tp11
I447
s(g1
(g5
S'j\x01\x00\x00\x00\x00\x00\x00'
p12
tp13
Rp14
F0.2
tp15
I850
s(g1
(g5
S'f\x01\x00\x00\x00\x00\x00\x00'
p16
tp17
Rp18
F0.0
tp19
I447
s(g1
(g5
S'"\x01\x00\x00\x00\x00\x00\x00'
p20
tp21
Rp22
F0.7
tp23
I848
s(g1
(g5
S'\xa0\x00\x00\x00\x00\x00\x00\x00'
p24
tp25
Rp26
F0.6
tp27
I825
s(g1
(g5
S'\xd2\x00\x00\x00\x00\x00\x00\x00'
p28
tp29
Rp30
F0.4
tp31
I837
s(g1
(g5
S'k\x01\x00\x00\x00\x00\x00\x00'
p32
tp33
Rp34
F0.52
tp35
I856
s(g1
(g5
S'\x1e\x00\x00\x00\x00\x00\x00\x00'
p36
tp37
Rp38
F0.5
tp39
I628
s(g1
(g5
S'n\x01\x00\x00\x00\x00\x00\x00'
p40
tp41
Rp42
F0.2
tp43
I845
s(g10
F0.5
tp44
I774
s(g1
(g5
S'P\x00\x00\x00\x00\x00\x00\x00'
p45
tp46
Rp47
F0.6
tp48
I751
s(g1
(g5
S'P\x00\x00\x00\x00\x00\x00\x00'
p49
tp50
Rp51
F0.4
tp52
I754
s(g1
(g5
S'@\x01\x00\x00\x00\x00\x00\x00'
p53
tp54
Rp55
F0.4
tp56
I843
s(g1
(g5
S'(\x00\x00\x00\x00\x00\x00\x00'
p57
tp58
Rp59
F1.4
tp60
I677
s(g1
(g5
S'|\x01\x00\x00\x00\x00\x00\x00'
p61
tp62
Rp63
F0.6
tp64
I844
s(g1
(g5
S'"\x01\x00\x00\x00\x00\x00\x00'
p65
tp66
Rp67
F0.0
tp68
I447
s(g1
(g5
S'F\x00\x00\x00\x00\x00\x00\x00'
p69
tp70
Rp71
F0.1
tp72
I733
s(g1
(g5
S'\x18\x01\x00\x00\x00\x00\x00\x00'
p73
tp74
Rp75
F0.4
tp76
I853
s(g10
F0.3
tp77
I773
s(g1
(g5
S'\x82\x00\x00\x00\x00\x00\x00\x00'
p78
tp79
Rp80
F0.4
tp81
I823
s(g1
(g5
S'J\x01\x00\x00\x00\x00\x00\x00'
p82
tp83
Rp84
F0.0
tp85
I447
s(g1
(g5
S'j\x01\x00\x00\x00\x00\x00\x00'
p86
tp87
Rp88
F0.46
tp89
I856
s(g1
(g5
S'\xaa\x00\x00\x00\x00\x00\x00\x00'
p90
tp91
Rp92
F0.6
tp93
I819
s(g1
(g5
S'(\x00\x00\x00\x00\x00\x00\x00'
p94
tp95
Rp96
F0.5
tp97
I676
s(g14
F0.1
tp98
I845
s(g1
(g5
S'm\x01\x00\x00\x00\x00\x00\x00'
p99
tp100
Rp101
F0.45
tp102
I851
s(g101
F0.51
tp103
I852
s(g1
(g5
S'\xbe\x00\x00\x00\x00\x00\x00\x00'
p104
tp105
Rp106
F0.5
tp107
I833
s(g1
(g5
S'h\x01\x00\x00\x00\x00\x00\x00'
p108
tp109
Rp110
F0.49
tp111
I856
s(g1
(g5
S'\xfa\x00\x00\x00\x00\x00\x00\x00'
p112
tp113
Rp114
F0.5
tp115
I837
s(g1
(g5
S'\x86\x01\x00\x00\x00\x00\x00\x00'
p116
tp117
Rp118
F0.4
tp119
I842
s(g1
(g5
S'\xe6\x00\x00\x00\x00\x00\x00\x00'
p120
tp121
Rp122
F0.1
tp123
I842
s(g1
(g5
S'h\x01\x00\x00\x00\x00\x00\x00'
p124
tp125
Rp126
F0.2
tp127
I850
s(g1
(g5
S'\xc8\x00\x00\x00\x00\x00\x00\x00'
p128
tp129
Rp130
F0.5
tp131
I840
s(g1
(g5
S'\x90\x01\x00\x00\x00\x00\x00\x00'
p132
tp133
Rp134
F0.1
tp135
I837
s(g118
F0.0
tp136
I447
s(g1
(g5
S'\x04\x01\x00\x00\x00\x00\x00\x00'
p137
tp138
Rp139
F0.3
tp140
I848
s(g1
(g5
S'i\x01\x00\x00\x00\x00\x00\x00'
p141
tp142
Rp143
F0.54
tp144
I858
s(g1
(g5
S'\x8c\x00\x00\x00\x00\x00\x00\x00'
p145
tp146
Rp147
F0.0
tp148
I447
s(g101
F0.48
tp149
I852
s(g134
F0.5
tp150
I842
s(g1
(g5
S'\x14\x00\x00\x00\x00\x00\x00\x00'
p151
tp152
Rp153
F1.8
tp154
I585
s(g1
(g5
S'd\x00\x00\x00\x00\x00\x00\x00'
p155
tp156
Rp157
F0.5
tp158
I782
s(g38
F0.2
tp159
I632
s(g1
(g5
S'\x96\x00\x00\x00\x00\x00\x00\x00'
p160
tp161
Rp162
F0.4
tp163
I819
s(g1
(g5
S'<\x00\x00\x00\x00\x00\x00\x00'
p164
tp165
Rp166
F0.5
tp167
I722
s(g1
(g5
S'2\x00\x00\x00\x00\x00\x00\x00'
p168
tp169
Rp170
F0.3
tp171
I709
s(g126
F0.4
tp172
I856
s(g1
(g5
S'\x14\x00\x00\x00\x00\x00\x00\x00'
p173
tp174
Rp175
F0.1
tp176
I586
s(g1
(g5
S',\x01\x00\x00\x00\x00\x00\x00'
p177
tp178
Rp179
F0.0
tp180
I447
s(g1
(g5
S'\xfa\x00\x00\x00\x00\x00\x00\x00'
p181
tp182
Rp183
F0.6
tp184
I836
s(g1
(g5
S'd\x00\x00\x00\x00\x00\x00\x00'
p185
tp186
Rp187
F0.6
tp188
I778
s(g1
(g5
S'\x90\x01\x00\x00\x00\x00\x00\x00'
p189
tp190
Rp191
F0.7
tp192
I840
s(g75
F0.3
tp193
I851
s(g1
(g5
S'T\x01\x00\x00\x00\x00\x00\x00'
p194
tp195
Rp196
F0.4
tp197
I846
s(g153
F1.0
tp198
I586
s(g101
F0.47
tp199
I852
s(g80
F0.2
tp200
I819
s(g1
(g5
S'\x82\x00\x00\x00\x00\x00\x00\x00'
p201
tp202
Rp203
F0.6
tp204
I822
s(g42
F0.4
tp205
I852
s(g51
F0.3
tp206
I755
s(g71
F0.4
tp207
I741
s(g71
F0.2
tp208
I742
s(g1
(g5
S'\x18\x01\x00\x00\x00\x00\x00\x00'
p209
tp210
Rp211
F0.7
tp212
I848
s(g110
F0.54
tp213
I856
s(g196
F0.1
tp214
I840
s(g71
F0.5
tp215
I742
s(g96
F0.3
tp216
I678
s(g179
F0.5
tp217
I849
s(g143
F0.49
tp218
I858
s(g42
F0.3
tp219
I850
s(g196
F0.2
tp220
I840
s(g14
F0.5
tp221
I857
s(g1
(g5
S'\xf0\x00\x00\x00\x00\x00\x00\x00'
p222
tp223
Rp224
F0.7
tp225
I842
s(g1
(g5
S'\x86\x01\x00\x00\x00\x00\x00\x00'
p226
tp227
Rp228
F0.6
tp229
I842
s(g1
(g5
S'\x0e\x01\x00\x00\x00\x00\x00\x00'
p230
tp231
Rp232
F0.1
tp233
I843
s(g1
(g5
S'r\x01\x00\x00\x00\x00\x00\x00'
p234
tp235
Rp236
F0.3
tp237
I850
s(g1
(g5
S'\xd2\x00\x00\x00\x00\x00\x00\x00'
p238
tp239
Rp240
F0.7
tp241
I837
s(g1
(g5
S'\xa0\x00\x00\x00\x00\x00\x00\x00'
p242
tp243
Rp244
F0.4
tp245
I828
s(g153
F1.6
tp246
I585
s(g1
(g5
S'\xdc\x00\x00\x00\x00\x00\x00\x00'
p247
tp248
Rp249
F0.0
tp250
I447
s(g1
(g5
S'n\x00\x00\x00\x00\x00\x00\x00'
p251
tp252
Rp253
F0.5
tp254
I804
s(g1
(g5
S'x\x00\x00\x00\x00\x00\x00\x00'
p255
tp256
Rp257
F0.7
tp258
I818
s(g1
(g5
S'\xf0\x00\x00\x00\x00\x00\x00\x00'
p259
tp260
Rp261
F0.5
tp262
I844
s(g114
F0.2
tp263
I841
s(g1
(g5
S'x\x00\x00\x00\x00\x00\x00\x00'
p264
tp265
Rp266
F0.0
tp267
I447
s(g55
F0.2
tp268
I838
s(g1
(g5
S',\x01\x00\x00\x00\x00\x00\x00'
p269
tp270
Rp271
F0.7
tp272
I849
s(g1
(g5
S'\n\x00\x00\x00\x00\x00\x00\x00'
p273
tp274
Rp275
F0.3
tp276
I569
s(g1
(g5
S'6\x01\x00\x00\x00\x00\x00\x00'
p277
tp278
Rp279
F0.0
tp280
I447
s(g42
F0.5
tp281
I853
s(g122
F0.3
tp282
I847
s(g166
F0.3
tp283
I722
s(g110
F0.47
tp284
I856
s(g1
(g5
S'|\x01\x00\x00\x00\x00\x00\x00'
p285
tp286
Rp287
F0.1
tp288
I839
s(g84
F0.2
tp289
I838
s(g1
(g5
S'^\x01\x00\x00\x00\x00\x00\x00'
p290
tp291
Rp292
F0.3
tp293
I848
s(g1
(g5
S'b\x01\x00\x00\x00\x00\x00\x00'
p294
tp295
Rp296
F0.1
tp297
I845
s(g157
F0.3
tp298
I780
s(g92
F0.7
tp299
I819
s(g110
F0.51
tp300
I856
s(g236
F0.2
tp301
I847
s(g266
F0.3
tp302
I820
s(g139
F0.1
tp303
I841
s(g1
(g5
S'\xdc\x00\x00\x00\x00\x00\x00\x00'
p304
tp305
Rp306
F0.6
tp307
I836
s(g30
F0.3
tp308
I839
s(g34
F0.53
tp309
I856
s(g1
(g5
S'\x0e\x01\x00\x00\x00\x00\x00\x00'
p310
tp311
Rp312
F0.6
tp313
I848
s(g228
F0.7
tp314
I842
s(g296
F0.3
tp315
I854
s(g143
F0.45
tp316
I857
s(g166
F0.1
tp317
I710
s(g1
(g5
S'(\x00\x00\x00\x00\x00\x00\x00'
p318
tp319
Rp320
F0.7
tp321
I676
s(g18
F0.2
tp322
I847
s(g249
F0.5
tp323
I837
s(g153
F0.6
tp324
I584
s(g1
(g5
S'\x04\x01\x00\x00\x00\x00\x00\x00'
p325
tp326
Rp327
F0.7
tp328
I847
s(g287
F0.0
tp329
I447
s(g106
F0.4
tp330
I834
s(g244
F0.0
tp331
I447
s(g179
F0.3
tp332
I847
s(g130
F0.1
tp333
I835
s(g266
F0.2
tp334
I818
s(g203
F0.7
tp335
I824
s(g88
F0.49
tp336
I857
s(g114
F0.3
tp337
I840
s(g88
F0.45
tp338
I856
s(g139
F0.5
tp339
I847
s(g1
(g5
S'n\x00\x00\x00\x00\x00\x00\x00'
p340
tp341
Rp342
F0.6
tp343
I802
s(g1
(g5
S'\xe6\x00\x00\x00\x00\x00\x00\x00'
p344
tp345
Rp346
F0.7
tp347
I848
s(g51
F0.0
tp348
I447
s(g232
F0.0
tp349
I447
s(g59
F0.8
tp350
I677
s(g157
F0.2
tp351
I786
s(g179
F0.4
tp352
I849
s(g59
F1.2
tp353
I677
s(g18
F0.5
tp354
I853
s(g187
F0.7
tp355
I779
s(g279
F0.3
tp356
I847
s(g134
F0.3
tp357
I839
s(g1
(g5
S'Z\x00\x00\x00\x00\x00\x00\x00'
p358
tp359
Rp360
F0.6
tp361
I770
s(g147
F0.3
tp362
I820
s(g106
F0.0
tp363
I447
s(g122
F0.2
tp364
I843
s(g59
F1.0
tp365
I677
s(g14
F0.3
tp366
I855
s(g134
F0.0
tp367
I447
s(g84
F0.5
tp368
I844
s(g143
F0.55
tp369
I858
s(g34
F0.45
tp370
I855
s(g101
F0.5
tp371
I852
s(g88
F0.52
tp372
I857
s(g80
F0.1
tp373
I814
s(g118
F0.2
tp374
I839
s(g59
F0.2
tp375
I679
s(g253
F0.0
tp376
I447
s(g1
(g5
S'\xbe\x00\x00\x00\x00\x00\x00\x00'
p377
tp378
Rp379
F0.7
tp380
I831
s(g287
F0.2
tp381
I841
s(g153
F0.8
tp382
I586
s(g1
(g5
S'^\x01\x00\x00\x00\x00\x00\x00'
p383
tp384
Rp385
F0.6
tp386
I847
s(g55
F0.0
tp387
I447
s(g139
F0.4
tp388
I848
s(g122
F0.5
tp389
I850
s(g1
(g5
S'<\x00\x00\x00\x00\x00\x00\x00'
p390
tp391
Rp392
F0.7
tp393
I720
s(g191
F0.6
tp394
I840
s(g1
(g5
S'T\x01\x00\x00\x00\x00\x00\x00'
p395
tp396
Rp397
F0.6
tp398
I843
s(g118
F0.1
tp399
I837
s(g261
F0.0
tp400
I447
s(g1
(g5
S'\xb4\x00\x00\x00\x00\x00\x00\x00'
p401
tp402
Rp403
F0.2
tp404
I826
s(g1
(g5
S'r\x01\x00\x00\x00\x00\x00\x00'
p405
tp406
Rp407
F0.7
tp408
I849
s(g1
(g5
S'\xaa\x00\x00\x00\x00\x00\x00\x00'
p409
tp410
Rp411
F0.2
tp412
I819
s(g96
F0.1
tp413
I678
s(g34
F0.51
tp414
I856
s(g88
F0.51
tp415
I857
s(g275
F0.0
tp416
I447
s(g63
F0.7
tp417
I843
s(g292
F0.0
tp418
I447
s(g130
F0.3
tp419
I840
s(g179
F0.2
tp420
I846
s(g80
F0.5
tp421
I823
s(g106
F0.2
tp422
I831
s(g183
F0.7
tp423
I836
s(g261
F0.3
tp424
I844
s(g170
F0.5
tp425
I709
s(g275
F0.1
tp426
I561
s(g30
F0.5
tp427
I839
s(g266
F0.4
tp428
I818
s(g1
(g5
S'\n\x00\x00\x00\x00\x00\x00\x00'
p429
tp430
Rp431
F0.6
tp432
I570
s(g196
F0.0
tp433
I447
s(g170
F0.0
tp434
I447
s(g38
F0.1
tp435
I633
s(g30
F0.2
tp436
I833
s(g1
(g5
S'\x1e\x00\x00\x00\x00\x00\x00\x00'
p437
tp438
Rp439
F0.6
tp440
I626
s(g42
F0.0
tp441
I447
s(g261
F0.4
tp442
I845
s(g411
F0.4
tp443
I822
s(g397
F0.7
tp444
I843
s(g1
(g5
S'l\x01\x00\x00\x00\x00\x00\x00'
p445
tp446
Rp447
F0.5
tp448
I854
s(g403
F0.3
tp449
I830
s(g143
F0.52
tp450
I858
s(g162
F0.1
tp451
I818
s(g346
F0.6
tp452
I849
s(g34
F0.54
tp453
I856
s(g143
F0.47
tp454
I858
s(g1
(g5
S'@\x01\x00\x00\x00\x00\x00\x00'
p455
tp456
Rp457
F0.6
tp458
I842
s(g110
F0.48
tp459
I856
s(g392
F0.6
tp460
I720
s(g75
F0.2
tp461
I851
s(g287
F0.4
tp462
I845
s(g1
(g5
S'F\x00\x00\x00\x00\x00\x00\x00'
p463
tp464
Rp465
F0.7
tp466
I743
s(g110
F0.53
tp467
I856
s(g114
F0.0
tp468
I447
s(g55
F0.3
tp469
I842
s(g279
F0.2
tp470
I841
s(g14
F0.4
tp471
I856
s(g67
F0.5
tp472
I849
s(g130
F0.4
tp473
I839
s(g153
F0.0
tp474
I447
s(g134
F0.4
tp475
I840
s(g34
F0.46
tp476
I855
s(g447
F0.55
tp477
I854
s(g30
F0.0
tp478
I447
s(g407
F0.6
tp479
I849
s(g67
F0.4
tp480
I851
s(g147
F0.1
tp481
I818
s(g110
F0.55
tp482
I856
s(g439
F0.7
tp483
I627
s(g80
F0.3
tp484
I821
s(g292
F0.5
tp485
I849
s(g153
F1.2
tp486
I586
s(g236
F0.4
tp487
I851
s(g18
F0.3
tp488
I852
s(g166
F0.4
tp489
I721
s(g126
F0.0
tp490
I447
s(g143
F0.48
tp491
I858
s(g257
F0.6
tp492
I817
s(g179
F0.1
tp493
I846
s(g1
(g5
S'h\x01\x00\x00\x00\x00\x00\x00'
p494
tp495
Rp496
F0.7
tp497
I853
s(g447
F0.47
tp498
I854
s(g80
F0.0
tp499
I447
s(g175
F0.5
tp500
I587
s(g34
F0.5
tp501
I856
s(g110
F0.52
tp502
I856
s(g22
F0.6
tp503
I847
s(g175
F0.3
tp504
I586
s(g236
F0.1
tp505
I842
s(g38
F0.0
tp506
I447
s(g236
F0.5
tp507
I852
s(g10
F0.1
tp508
I773
s(g84
F0.1
tp509
I839
s(g327
F0.6
tp510
I846
s(g34
F0.55
tp511
I856
s(g59
F1.6
tp512
I677
s(g224
F0.6
tp513
I842
s(g296
F0.4
tp514
I855
s(g34
F0.47
tp515
I856
s(g457
F0.7
tp516
I842
s(g51
F0.1
tp517
I751
s(g1
(g5
S'\x14\x00\x00\x00\x00\x00\x00\x00'
p518
tp519
Rp520
F0.7
tp521
I585
s(g139
F0.0
tp522
I447
s(g143
F0.51
tp523
I858
s(g232
F0.3
tp524
I848
s(g1
(g5
S'\x96\x00\x00\x00\x00\x00\x00\x00'
p525
tp526
Rp527
F0.6
tp528
I816
s(g447
F0.45
tp529
I853
s(g101
F0.54
tp530
I852
s(g465
F0.6
tp531
I739
s(g266
F0.1
tp532
I817
s(g88
F0.53
tp533
I857
s(g275
F0.4
tp534
I569
s(g67
F0.2
tp535
I845
s(g211
F0.6
tp536
I848
s(g236
F0.0
tp537
I447
s(g403
F0.5
tp538
I831
s(g51
F0.2
tp539
I755
s(g147
F0.5
tp540
I819
s(g240
F0.6
tp541
I837
s(g166
F0.2
tp542
I718
s(g139
F0.2
tp543
I846
s(g403
F0.4
tp544
I831
s(g253
F0.2
tp545
I806
s(g157
F0.0
tp546
I447
s(g447
F0.51
tp547
I854
s(g1
(g5
S'2\x00\x00\x00\x00\x00\x00\x00'
p548
tp549
Rp550
F0.6
tp551
I706
s(g42
F0.1
tp552
I839
s(g447
F0.53
tp553
I854
s(g14
F0.0
tp554
I447
s(g385
F0.7
tp555
I845
s(g292
F0.1
tp556
I838
s(g153
F0.2
tp557
I587
s(g18
F0.1
tp558
I845
s(g249
F0.1
tp559
I835
s(g84
F0.4
tp560
I844
s(g88
F0.48
tp561
I857
s(g306
F0.7
tp562
I835
s(g59
F0.6
tp563
I674
s(g1
(g5
S'6\x01\x00\x00\x00\x00\x00\x00'
p564
tp565
Rp566
F0.6
tp567
I847
s(g1
(g5
S'\x8c\x00\x00\x00\x00\x00\x00\x00'
p568
tp569
Rp570
F0.6
tp571
I817
s(g143
F0.53
tp572
I858
s(g447
F0.54
tp573
I854
s(g153
F0.4
tp574
I586
s(g59
F0.4
tp575
I677
s(g360
F0.7
tp576
I772
s(g75
F0.0
tp577
I447
s(g1
(g5
S'\xc8\x00\x00\x00\x00\x00\x00\x00'
p578
tp579
Rp580
F0.6
tp581
I838
s(g153
F2.0
tp582
I585
s(g275
F0.2
tp583
I569
s(g196
F0.5
tp584
I845
s(g170
F0.2
tp585
I706
s(g162
F0.2
tp586
I818
s(g38
F0.4
tp587
I627
s(g580
F0.7
tp588
I838
s(g566
F0.7
tp589
I848
s(g34
F0.48
tp590
I856
s(g287
F0.5
tp591
I847
s(g147
F0.4
tp592
I821
s(g296
F0.2
tp593
I851
s(g447
F0.49
tp594
I854
s(g1
(g5
S'\xb4\x00\x00\x00\x00\x00\x00\x00'
p595
tp596
Rp597
F0.7
tp598
I829
s(g59
F0.0
tp599
I447
s(g162
F0.5
tp600
I818
s(g30
F0.1
tp601
I837
s(g122
F0.4
tp602
I850
s(g296
F0.5
tp603
I855
s(g126
F0.1
tp604
I847
s(g106
F0.1
tp605
I834
s(g88
F0.47
tp606
I857
s(g379
F0.6
tp607
I831
s(g101
F0.55
tp608
I852
s(g296
F0.0
tp609
I447
s(g170
F0.4
tp610
I708
s(g101
F0.52
tp611
I852
s(g162
F0.0
tp612
I447
s(g106
F0.3
tp613
I834
s(g26
F0.7
tp614
I825
s(g312
F0.7
tp615
I849
s(g279
F0.4
tp616
I849
s(g292
F0.2
tp617
I844
s(g147
F0.2
tp618
I822
s(g118
F0.3
tp619
I841
s(g143
F0.5
tp620
I858
s(g271
F0.6
tp621
I848
s(g261
F0.1
tp622
I840
s(g166
F0.0
tp623
I447
s(g496
F0.6
tp624
I854
s(g411
F0.3
tp625
I821
s(g253
F0.4
tp626
I804
s(g249
F0.3
tp627
I834
s(g1
(g5
S'J\x01\x00\x00\x00\x00\x00\x00'
p628
tp629
Rp630
F0.6
tp631
I842
s(g244
F0.3
tp632
I827
s(g287
F0.3
tp633
I843
s(g114
F0.4
tp634
I839
s(g342
F0.7
tp635
I803
s(g130
F0.0
tp636
I447
s(g118
F0.5
tp637
I845
s(g110
F0.45
tp638
I856
s(g447
F0.46
tp639
I853
s(g114
F0.1
tp640
I836
s(g411
F0.1
tp641
I813
s(g10
F0.2
tp642
I774
s(g232
F0.2
tp643
I849
s(g244
F0.1
tp644
I823
s(g162
F0.3
tp645
I818
s(g266
F0.5
tp646
I818
s(g279
F0.5
tp647
I849
s(g101
F0.49
tp648
I852
s(g550
F0.7
tp649
I707
s(g71
F0.3
tp650
I741
s(g157
F0.1
tp651
I790
s(g34
F0.49
tp652
I856
s(g126
F0.3
tp653
I855
s(g122
F0.0
tp654
I447
s(g244
F0.5
tp655
I827
s(g403
F0.1
tp656
I826
s(g110
F0.46
tp657
I856
s(g55
F0.5
tp658
I844
s(g275
F0.5
tp659
I570
s(g447
F0.52
tp660
I854
s(g84
F0.3
tp661
I843
s(g38
F0.3
tp662
I628
s(g570
F0.7
tp663
I818
s(g71
F0.0
tp664
I447
s(g279
F0.1
tp665
I842
s(g130
F0.2
tp666
I836
s(g253
F0.1
tp667
I804
s(g527
F0.7
tp668
I817
s(g59
F2.0
tp669
I677
s(g253
F0.3
tp670
I805
s(g126
F0.5
tp671
I856
s(g431
F0.7
tp672
I570
s(g411
F0.5
tp673
I822
s(g101
F0.46
tp674
I851
s(g51
F0.5
tp675
I754
s(g101
F0.53
tp676
I852
s(g75
F0.1
tp677
I847
s(g10
F0.4
tp678
I772
s(g232
F0.5
tp679
I849
s(g153
F1.4
tp680
I585
s(g447
F0.48
tp681
I854
s(g88
F0.55
tp682
I857
s(g59
F1.8
tp683
I677
s(g67
F0.1
tp684
I840
s(g249
F0.4
tp685
I836
s(g75
F0.5
tp686
I849
s(g88
F0.54
tp687
I857
s(g18
F0.4
tp688
I853
s(g630
F0.7
tp689
I842
s(g292
F0.4
tp690
I849
s(g261
F0.2
tp691
I841
s(g134
F0.2
tp692
I837
s(g55
F0.1
tp693
I836
s(g597
F0.6
tp694
I829
s(g143
F0.46
tp695
I857
s(g411
F0.0
tp696
I447
s(g403
F0.0
tp697
I447
s(g157
F0.4
tp698
I781
s(g249
F0.2
tp699
I831
s(g170
F0.1
tp700
I700
s(g67
F0.3
tp701
I849
s(g47
F0.7
tp702
I748
s(g196
F0.3
tp703
I844
s(g244
F0.2
tp704
I825
s(g232
F0.4
tp705
I850
s.