(dp0
(cnumpy.core.multiarray
scalar
p1
(cnumpy
dtype
p2
(S'i8'
p3
I0
I1
tp4
Rp5
(I3
S'<'
p6
NNNI-1
I-1
I0
tp7
bS'3\x00\x00\x00\x00\x00\x00\x00'
p8
tp9
Rp10
F0.065
tp11
I116
s(g1
(g5
S'8\x00\x00\x00\x00\x00\x00\x00'
p12
tp13
Rp14
F0.063
tp15
I119
s(g1
(g5
S'+\x00\x00\x00\x00\x00\x00\x00'
p16
tp17
Rp18
F0.057
tp19
I117
s(g1
(g5
S'$\x00\x00\x00\x00\x00\x00\x00'
p20
tp21
Rp22
F0.061
tp23
I113
s(g1
(g5
S'Z\x00\x00\x00\x00\x00\x00\x00'
p24
tp25
Rp26
F0.0
tp27
I101
s(g1
(g5
S'P\x00\x00\x00\x00\x00\x00\x00'
p28
tp29
Rp30
F0.09
tp31
I114
s(g1
(g5
S'7\x00\x00\x00\x00\x00\x00\x00'
p32
tp33
Rp34
F0.02
tp35
I112
s(g1
(g5
S'\x18\x00\x00\x00\x00\x00\x00\x00'
p36
tp37
Rp38
F0.06
tp39
I110
s(g1
(g5
S'F\x00\x00\x00\x00\x00\x00\x00'
p40
tp41
Rp42
F0.09
tp43
I115
s(g1
(g5
S'A\x00\x00\x00\x00\x00\x00\x00'
p44
tp45
Rp46
F0.064
tp47
I115
s(g1
(g5
S'0\x00\x00\x00\x00\x00\x00\x00'
p48
tp49
Rp50
F0.065
tp51
I117
s(g1
(g5
S'\x19\x00\x00\x00\x00\x00\x00\x00'
p52
tp53
Rp54
I0
tp55
I101
s(g1
(g5
S'<\x00\x00\x00\x00\x00\x00\x00'
p56
tp57
Rp58
F0.058
tp59
I118
s(g1
(g5
S'U\x00\x00\x00\x00\x00\x00\x00'
p60
tp61
Rp62
F0.06
tp63
I118
s(g1
(g5
S'#\x00\x00\x00\x00\x00\x00\x00'
p64
tp65
Rp66
F0.058
tp67
I115
s(g1
(g5
S'P\x00\x00\x00\x00\x00\x00\x00'
p68
tp69
Rp70
F0.2
tp71
I108
s(g1
(g5
S'=\x00\x00\x00\x00\x00\x00\x00'
p72
tp73
Rp74
F0.057
tp75
I117
s(g1
(g5
S'/\x00\x00\x00\x00\x00\x00\x00'
p76
tp77
Rp78
F0.04
tp79
I119
s(g1
(g5
S'&\x00\x00\x00\x00\x00\x00\x00'
p80
tp81
Rp82
F0.055
tp83
I117
s(g46
F0.061
tp84
I116
s(g1
(g5
S',\x00\x00\x00\x00\x00\x00\x00'
p85
tp86
Rp87
F0.056
tp88
I116
s(g1
(g5
S'_\x00\x00\x00\x00\x00\x00\x00'
p89
tp90
Rp91
F0.02
tp92
I113
s(g42
F0.02
tp93
I114
s(g1
(g5
S'\x1c\x00\x00\x00\x00\x00\x00\x00'
p94
tp95
Rp96
F0.1
tp97
I103
s(g82
F0.059
tp98
I119
s(g1
(g5
S'+\x00\x00\x00\x00\x00\x00\x00'
p99
tp100
Rp101
F0.08
tp102
I116
s(g1
(g5
S'7\x00\x00\x00\x00\x00\x00\x00'
p103
tp104
Rp105
F0.055
tp106
I121
s(g58
F0.055
tp107
I117
s(g1
(g5
S'B\x00\x00\x00\x00\x00\x00\x00'
p108
tp109
Rp110
F0.02
tp111
I113
s(g1
(g5
S'4\x00\x00\x00\x00\x00\x00\x00'
p112
tp113
Rp114
F0.057
tp115
I119
s(g66
F0.061
tp116
I115
s(g1
(g5
S'U\x00\x00\x00\x00\x00\x00\x00'
p117
tp118
Rp119
F0.01
tp120
I112
s(g74
F0.063
tp121
I116
s(g1
(g5
S'-\x00\x00\x00\x00\x00\x00\x00'
p122
tp123
Rp124
F0.055
tp125
I118
s(g10
F0.064
tp126
I116
s(g1
(g5
S'*\x00\x00\x00\x00\x00\x00\x00'
p127
tp128
Rp129
F0.062
tp130
I118
s(g129
F0.059
tp131
I119
s(g1
(g5
S'K\x00\x00\x00\x00\x00\x00\x00'
p132
tp133
Rp134
F0.01
tp135
I112
s(g1
(g5
S'K\x00\x00\x00\x00\x00\x00\x00'
p136
tp137
Rp138
I0
tp139
I101
s(g91
F0.04
tp140
I113
s(g1
(g5
S'>\x00\x00\x00\x00\x00\x00\x00'
p141
tp142
Rp143
F0.058
tp144
I117
s(g1
(g5
S'@\x00\x00\x00\x00\x00\x00\x00'
p145
tp146
Rp147
F0.062
tp148
I116
s(g1
(g5
S'%\x00\x00\x00\x00\x00\x00\x00'
p149
tp150
Rp151
F0.061
tp152
I118
s(g50
F0.055
tp153
I118
s(g1
(g5
S'\x1e\x00\x00\x00\x00\x00\x00\x00'
p154
tp155
Rp156
F0.12
tp157
I102
s(g1
(g5
S'\x19\x00\x00\x00\x00\x00\x00\x00'
p158
tp159
Rp160
F0.06
tp161
I111
s(g18
F0.056
tp162
I117
s(g1
(g5
S'(\x00\x00\x00\x00\x00\x00\x00'
p163
tp164
Rp165
F0.064
tp166
I119
s(g143
F0.062
tp167
I116
s(g66
F0.065
tp168
I115
s(g129
F0.063
tp169
I117
s(g160
F0.03
tp170
I112
s(g1
(g5
S'L\x00\x00\x00\x00\x00\x00\x00'
p171
tp172
Rp173
F0.04
tp174
I118
s(g1
(g5
S"'\x00\x00\x00\x00\x00\x00\x00"
p175
tp176
Rp177
F0.063
tp178
I120
s(g1
(g5
S'9\x00\x00\x00\x00\x00\x00\x00'
p179
tp180
Rp181
F0.02
tp182
I112
s(g1
(g5
S'F\x00\x00\x00\x00\x00\x00\x00'
p183
tp184
Rp185
F0.06
tp186
I115
s(g1
(g5
S')\x00\x00\x00\x00\x00\x00\x00'
p187
tp188
Rp189
F0.061
tp190
I118
s(g1
(g5
S'\n\x00\x00\x00\x00\x00\x00\x00'
p191
tp192
Rp193
F0.07
tp194
I104
s(g1
(g5
S'#\x00\x00\x00\x00\x00\x00\x00'
p195
tp196
Rp197
F0.07
tp198
I114
s(g165
F0.056
tp199
I118
s(g1
(g5
S'-\x00\x00\x00\x00\x00\x00\x00'
p200
tp201
Rp202
F0.02
tp203
I113
s(g185
F0.08
tp204
I114
s(g1
(g5
S'\x14\x00\x00\x00\x00\x00\x00\x00'
p205
tp206
Rp207
F0.03
tp208
I111
s(g78
F0.1
tp209
I110
s(g1
(g5
S':\x00\x00\x00\x00\x00\x00\x00'
p210
tp211
Rp212
F0.064
tp213
I117
s(g1
(g5
S'd\x00\x00\x00\x00\x00\x00\x00'
p214
tp215
Rp216
F0.09
tp217
I116
s(g1
(g5
S'\x1e\x00\x00\x00\x00\x00\x00\x00'
p218
tp219
Rp220
F0.1
tp221
I104
s(g1
(g5
S'9\x00\x00\x00\x00\x00\x00\x00'
p222
tp223
Rp224
F0.059
tp225
I117
s(g189
F0.063
tp226
I117
s(g105
F0.064
tp227
I120
s(g91
F0.06
tp228
I117
s(g70
F0.05
tp229
I115
s(g1
(g5
S'/\x00\x00\x00\x00\x00\x00\x00'
p230
tp231
Rp232
F0.064
tp233
I115
s(g1
(g5
S'd\x00\x00\x00\x00\x00\x00\x00'
p234
tp235
Rp236
F0.14
tp237
I111
s(g101
F0.06
tp238
I119
s(g1
(g5
S'<\x00\x00\x00\x00\x00\x00\x00'
p239
tp240
Rp241
F0.0
tp242
I101
s(g1
(g5
S'2\x00\x00\x00\x00\x00\x00\x00'
p243
tp244
Rp245
F0.04
tp246
I119
s(g1
(g5
S'A\x00\x00\x00\x00\x00\x00\x00'
p247
tp248
Rp249
F0.09
tp250
I117
s(g87
F0.062
tp251
I116
s(g151
F0.056
tp252
I117
s(g156
F0.06
tp253
I110
s(g1
(g5
S'\x0f\x00\x00\x00\x00\x00\x00\x00'
p254
tp255
Rp256
F0.04
tp257
I110
s(g1
(g5
S'd\x00\x00\x00\x00\x00\x00\x00'
p258
tp259
Rp260
F0.15
tp261
I109
s(g189
F0.057
tp262
I117
s(g197
F0.06
tp263
I116
s(g87
F0.064
tp264
I115
s(g147
F0.056
tp265
I116
s(g46
F0.062
tp266
I116
s(g14
F0.065
tp267
I118
s(g202
F0.07
tp268
I115
s(g165
F0.055
tp269
I118
s(g10
F0.062
tp270
I117
s(g70
F0.15
tp271
I107
s(g119
F0.03
tp272
I112
s(g129
F0.061
tp273
I118
s(g1
(g5
S'.\x00\x00\x00\x00\x00\x00\x00'
p274
tp275
Rp276
F0.055
tp277
I117
s(g1
(g5
S'F\x00\x00\x00\x00\x00\x00\x00'
p278
tp279
Rp280
F0.2
tp281
I104
s(g1
(g5
S'1\x00\x00\x00\x00\x00\x00\x00'
p282
tp283
Rp284
F0.055
tp285
I116
s(g249
F0.01
tp286
I112
s(g1
(g5
S'2\x00\x00\x00\x00\x00\x00\x00'
p287
tp288
Rp289
F0.063
tp290
I116
s(g1
(g5
S'!\x00\x00\x00\x00\x00\x00\x00'
p291
tp292
Rp293
F0.06
tp294
I111
s(g202
F0.06
tp295
I120
s(g78
F0.08
tp296
I113
s(g1
(g5
S';\x00\x00\x00\x00\x00\x00\x00'
p297
tp298
Rp299
F0.057
tp300
I117
s(g1
(g5
S'\n\x00\x00\x00\x00\x00\x00\x00'
p301
tp302
Rp303
F0.14
tp304
I96
s(g293
F0.1
tp305
I107
s(g74
F0.056
tp306
I117
s(g1
(g5
S'\x14\x00\x00\x00\x00\x00\x00\x00'
p307
tp308
Rp309
F0.12
tp310
I101
s(g1
(g5
S'?\x00\x00\x00\x00\x00\x00\x00'
p311
tp312
Rp313
F0.055
tp314
I116
s(g1
(g5
S'5\x00\x00\x00\x00\x00\x00\x00'
p315
tp316
Rp317
F0.058
tp318
I119
s(g317
F0.055
tp319
I116
s(g212
F0.055
tp320
I120
s(g1
(g5
S'&\x00\x00\x00\x00\x00\x00\x00'
p321
tp322
Rp323
F0.08
tp324
I119
s(g1
(g5
S'-\x00\x00\x00\x00\x00\x00\x00'
p325
tp326
Rp327
I0
tp328
I101
s(g129
F0.065
tp329
I117
s(g289
F0.057
tp330
I118
s(g22
F0.059
tp331
I114
s(g1
(g5
S'\x14\x00\x00\x00\x00\x00\x00\x00'
p332
tp333
Rp334
F0.1
tp335
I101
s(g284
F0.063
tp336
I115
s(g78
F0.02
tp337
I113
s(g105
F0.058
tp338
I120
s(g34
F0.04
tp339
I118
s(g46
F0.058
tp340
I117
s(g249
F0.03
tp341
I121
s(g147
F0.059
tp342
I117
s(g1
(g5
S'4\x00\x00\x00\x00\x00\x00\x00'
p343
tp344
Rp345
F0.02
tp346
I113
s(g1
(g5
S'6\x00\x00\x00\x00\x00\x00\x00'
p347
tp348
Rp349
F0.059
tp350
I123
s(g34
F0.06
tp351
I121
s(g177
F0.055
tp352
I119
s(g87
F0.055
tp353
I116
s(g323
F0.06
tp354
I120
s(g165
F0.063
tp355
I119
s(g1
(g5
S'\x1e\x00\x00\x00\x00\x00\x00\x00'
p356
tp357
Rp358
F0.01
tp359
I107
s(g50
F0.061
tp360
I118
s(g181
F0.1
tp361
I115
s(g1
(g5
S'\n\x00\x00\x00\x00\x00\x00\x00'
p362
tp363
Rp364
F0.15
tp365
I94
s(g249
F0.04
tp366
I117
s(g151
F0.063
tp367
I118
s(g1
(g5
S'\x13\x00\x00\x00\x00\x00\x00\x00'
p368
tp369
Rp370
F0.08
tp371
I103
s(g46
F0.055
tp372
I116
s(g241
F0.15
tp373
I106
s(g212
F0.059
tp374
I119
s(g276
F0.058
tp375
I119
s(g156
F0.08
tp376
I107
s(g66
F0.062
tp377
I115
s(g38
F0.04
tp378
I111
s(g30
F0.01
tp379
I112
s(g119
F0.09
tp380
I114
s(g1
(g5
S'd\x00\x00\x00\x00\x00\x00\x00'
p381
tp382
Rp383
F0.04
tp384
I115
s(g62
F0.04
tp385
I117
s(g276
F0.062
tp386
I116
s(g1
(g5
S'_\x00\x00\x00\x00\x00\x00\x00'
p387
tp388
Rp389
F0.01
tp390
I112
s(g151
F0.057
tp391
I117
s(g50
F0.064
tp392
I117
s(g220
F0.0
tp393
I101
s(g207
F0.09
tp394
I103
s(g289
F0.062
tp395
I117
s(g364
F0.0
tp396
I101
s(g216
F0.01
tp397
I113
s(g177
F0.059
tp398
I121
s(g197
F0.05
tp399
I111
s(g317
F0.064
tp400
I118
s(g202
F0.08
tp401
I117
s(g241
F0.05
tp402
I114
s(g256
F0.07
tp403
I107
s(g1
(g5
S'(\x00\x00\x00\x00\x00\x00\x00'
p404
tp405
Rp406
F0.02
tp407
I111
s(g74
F0.055
tp408
I117
s(g1
(g5
S'<\x00\x00\x00\x00\x00\x00\x00'
p409
tp410
Rp411
F0.08
tp412
I115
s(g177
F0.056
tp413
I119
s(g46
F0.057
tp414
I116
s(g18
F0.059
tp415
I118
s(g1
(g5
S'2\x00\x00\x00\x00\x00\x00\x00'
p416
tp417
Rp418
F0.08
tp419
I114
s(g105
F0.057
tp420
I119
s(g129
F0.064
tp421
I117
s(g160
F0.1
tp422
I105
s(g1
(g5
S'Q\x00\x00\x00\x00\x00\x00\x00'
p423
tp424
Rp425
F0.02
tp426
I113
s(g256
F0.05
tp427
I107
s(g129
F0.058
tp428
I118
s(g151
F0.058
tp429
I118
s(g134
F0.03
tp430
I118
s(g147
F0.063
tp431
I115
s(g1
(g5
S'7\x00\x00\x00\x00\x00\x00\x00'
p432
tp433
Rp434
I0
tp435
I101
s(g18
F0.058
tp436
I118
s(g224
F0.055
tp437
I118
s(g110
F0.08
tp438
I113
s(g134
F0.04
tp439
I118
s(g1
(g5
S'\x0e\x00\x00\x00\x00\x00\x00\x00'
p440
tp441
Rp442
F0.02
tp443
I105
s(g189
F0.065
tp444
I117
s(g46
F0.063
tp445
I115
s(g34
F0.08
tp446
I115
s(g96
F0.08
tp447
I107
s(g96
F0.04
tp448
I109
s(g303
F0.12
tp449
I96
s(g442
F0.06
tp450
I108
s(g50
F0.063
tp451
I117
s(g193
F0.01
tp452
I105
s(g134
F0.1
tp453
I113
s(g1
(g5
S'<\x00\x00\x00\x00\x00\x00\x00'
p454
tp455
Rp456
F0.01
tp457
I109
s(g82
F0.056
tp458
I117
s(g197
F0.09
tp459
I113
s(g224
F0.057
tp460
I115
s(g260
F0.2
tp461
I109
s(g124
F0.063
tp462
I117
s(g1
(g5
S'(\x00\x00\x00\x00\x00\x00\x00'
p463
tp464
Rp465
F0.15
tp466
I111
s(g1
(g5
S'\x0f\x00\x00\x00\x00\x00\x00\x00'
p467
tp468
Rp469
I0
tp470
I101
s(g151
F0.065
tp471
I118
s(g26
F0.15
tp472
I109
s(g284
F0.056
tp473
I115
s(g418
F0.06
tp474
I119
s(g18
F0.055
tp475
I117
s(g50
F0.057
tp476
I119
s(g105
F0.061
tp477
I119
s(g82
F0.057
tp478
I117
s(g313
F0.061
tp479
I116
s(g425
F0.06
tp480
I117
s(g129
F0.056
tp481
I117
s(g313
F0.065
tp482
I114
s(g74
F0.061
tp483
I117
s(g74
F0.065
tp484
I115
s(g303
F0.06
tp485
I107
s(g202
F0.03
tp486
I117
s(g124
F0.056
tp487
I118
s(g26
F0.1
tp488
I116
s(g34
F0.03
tp489
I119
s(g232
F0.055
tp490
I117
s(g114
F0.055
tp491
I119
s(g299
F0.061
tp492
I117
s(g143
F0.056
tp493
I116
s(g289
F0.055
tp494
I118
s(g334
F0.2
tp495
I97
s(g38
F0.02
tp496
I107
s(g14
F0.061
tp497
I119
s(g151
F0.055
tp498
I117
s(g129
F0.055
tp499
I117
s(g425
F0.08
tp500
I113
s(g317
F0.062
tp501
I119
s(g256
F0.1
tp502
I100
s(g224
F0.065
tp503
I115
s(g22
F0.062
tp504
I113
s(g1
(g5
S'A\x00\x00\x00\x00\x00\x00\x00'
p505
tp506
Rp507
I0
tp508
I101
s(g224
F0.064
tp509
I115
s(g202
F0.09
tp510
I115
s(g289
F0.058
tp511
I119
s(g181
F0.08
tp512
I115
s(g10
F0.058
tp513
I119
s(g224
F0.062
tp514
I116
s(g177
F0.065
tp515
I120
s(g193
F0.09
tp516
I100
s(g276
F0.064
tp517
I115
s(g406
F0.03
tp518
I115
s(g14
F0.059
tp519
I120
s(g193
F0.03
tp520
I108
s(g276
F0.059
tp521
I119
s(g66
F0.057
tp522
I114
s(g143
F0.064
tp523
I114
s(g1
(g5
S'P\x00\x00\x00\x00\x00\x00\x00'
p524
tp525
Rp526
F0.06
tp527
I117
s(g442
F0.04
tp528
I110
s(g18
F0.064
tp529
I116
s(g66
F0.064
tp530
I115
s(g134
F0.07
tp531
I112
s(g165
F0.065
tp532
I119
s(g349
F0.065
tp533
I121
s(g22
F0.058
tp534
I114
s(g34
F0.05
tp535
I118
s(g1
(g5
S'_\x00\x00\x00\x00\x00\x00\x00'
p536
tp537
Rp538
I0
tp539
I101
s(g1
(g5
S'2\x00\x00\x00\x00\x00\x00\x00'
p540
tp541
Rp542
F0.0
tp543
I101
s(g364
F0.1
tp544
I96
s(g323
F0.1
tp545
I118
s(g1
(g5
S'G\x00\x00\x00\x00\x00\x00\x00'
p546
tp547
Rp548
F0.1
tp549
I113
s(g58
F0.061
tp550
I117
s(g317
F0.057
tp551
I118
s(g114
F0.056
tp552
I119
s(g1
(g5
S'(\x00\x00\x00\x00\x00\x00\x00'
p553
tp554
Rp555
F0.14
tp556
I112
s(g105
F0.059
tp557
I120
s(g358
F0.07
tp558
I110
s(g160
F0.02
tp559
I108
s(g173
F0.06
tp560
I117
s(g105
F0.062
tp561
I120
s(g74
F0.064
tp562
I115
s(g96
F0.06
tp563
I109
s(g276
F0.063
tp564
I115
s(g151
F0.062
tp565
I119
s(g299
F0.064
tp566
I117
s(g143
F0.063
tp567
I115
s(g299
F0.059
tp568
I118
s(g58
F0.065
tp569
I116
s(g370
F0.06
tp570
I109
s(g299
F0.062
tp571
I118
s(g289
F0.064
tp572
I116
s(g212
F0.058
tp573
I118
s(g389
F0.05
tp574
I115
s(g119
F0.07
tp575
I113
s(g299
F0.058
tp576
I118
s(g10
F0.056
tp577
I118
s(g197
F0.04
tp578
I114
s(g442
F0.1
tp579
I99
s(g189
F0.055
tp580
I117
s(g418
F0.12
tp581
I111
s(g143
F0.057
tp582
I116
s(g177
F0.064
tp583
I120
s(g119
F0.05
tp584
I115
s(g22
F0.057
tp585
I113
s(g105
F0.065
tp586
I119
s(g134
F0.09
tp587
I113
s(g418
F0.14
tp588
I106
s(g34
F0.01
tp589
I109
s(g1
(g5
S'Z\x00\x00\x00\x00\x00\x00\x00'
p590
tp591
Rp592
F0.06
tp593
I116
s(g110
F0.1
tp594
I114
s(g82
F0.065
tp595
I118
s(g50
F0.056
tp596
I118
s(g1
(g5
S'#\x00\x00\x00\x00\x00\x00\x00'
p597
tp598
Rp599
I0
tp600
I101
s(g548
F0.04
tp601
I118
s(g87
F0.059
tp602
I117
s(g147
F0.057
tp603
I116
s(g249
F0.02
tp604
I113
s(g22
F0.064
tp605
I113
s(g173
F0.08
tp606
I114
s(g165
F0.058
tp607
I119
s(g220
F0.15
tp608
I100
s(g249
F0.06
tp609
I117
s(g216
F0.03
tp610
I114
s(g62
F0.1
tp611
I114
s(g232
F0.065
tp612
I115
s(g383
F0.02
tp613
I112
s(g177
F0.062
tp614
I121
s(g62
F0.02
tp615
I111
s(g334
F0.15
tp616
I98
s(g82
F0.061
tp617
I118
s(g147
F0.055
tp618
I116
s(g114
F0.062
tp619
I118
s(g30
F0.03
tp620
I114
s(g1
(g5
S'Z\x00\x00\x00\x00\x00\x00\x00'
p621
tp622
Rp623
F0.04
tp624
I115
s(g101
F0.1
tp625
I113
s(g62
F0.08
tp626
I114
s(g42
F0.03
tp627
I118
s(g241
F0.1
tp628
I115
s(g202
F0.05
tp629
I116
s(g425
F0.1
tp630
I114
s(g22
F0.056
tp631
I112
s(g134
F0.08
tp632
I113
s(g189
F0.064
tp633
I117
s(g91
F0.08
tp634
I114
s(g14
F0.062
tp635
I119
s(g74
F0.058
tp636
I118
s(g181
F0.04
tp637
I119
s(g14
F0.056
tp638
I119
s(g114
F0.063
tp639
I117
s(g256
F0.09
tp640
I103
s(g245
F0.09
tp641
I116
s(g124
F0.058
tp642
I119
s(g256
F0.08
tp643
I104
s(g334
F0.0
tp644
I101
s(g548
F0.08
tp645
I114
s(g143
F0.059
tp646
I117
s(g249
F0.1
tp647
I114
s(g10
F0.057
tp648
I118
s(g185
F0.12
tp649
I108
s(g389
F0.09
tp650
I116
s(g197
F0.01
tp651
I108
s(g313
F0.056
tp652
I116
s(g592
F0.12
tp653
I115
s(g34
F0.07
tp654
I116
s(g34
F0.1
tp655
I114
s(g42
F0.07
tp656
I113
s(g26
F0.2
tp657
I108
s(g202
F0.01
tp658
I110
s(g42
F0.01
tp659
I112
s(g38
F0.1
tp660
I104
s(g10
F0.063
tp661
I116
s(g260
F0.1
tp662
I117
s(g82
F0.058
tp663
I118
s(g50
F0.058
tp664
I120
s(g465
F0.05
tp665
I115
s(g177
F0.061
tp666
I120
s(g197
F0.02
tp667
I110
s(g236
F0.06
tp668
I117
s(g207
F0.07
tp669
I108
s(g245
F0.03
tp670
I117
s(g345
F0.06
tp671
I120
s(g181
F0.06
tp672
I118
s(g216
F0.07
tp673
I113
s(g124
F0.065
tp674
I117
s(g124
F0.059
tp675
I119
s(g232
F0.059
tp676
I119
s(g224
F0.056
tp677
I116
s(g293
F0.08
tp678
I109
s(g1
(g5
S'\n\x00\x00\x00\x00\x00\x00\x00'
p679
tp680
Rp681
F0.02
tp682
I106
s(g124
F0.064
tp683
I117
s(g58
F0.057
tp684
I117
s(g151
F0.064
tp685
I118
s(g18
F0.061
tp686
I117
s(g232
F0.058
tp687
I119
s(g207
F0.01
tp688
I106
s(g165
F0.061
tp689
I119
s(g349
F0.061
tp690
I122
s(g309
F0.06
tp691
I109
s(g160
F0.08
tp692
I107
s(g276
F0.065
tp693
I115
s(g526
F0.14
tp694
I109
s(g284
F0.059
tp695
I116
s(g197
F0.1
tp696
I113
s(g66
F0.055
tp697
I113
s(g160
F0.07
tp698
I111
s(g202
F0.04
tp699
I119
s(g129
F0.057
tp700
I117
s(g58
F0.063
tp701
I116
s(g124
F0.061
tp702
I118
s(g256
F0.06
tp703
I108
s(g70
F0.1
tp704
I114
s(g548
F0.06
tp705
I116
s(g245
F0.02
tp706
I111
s(g101
F0.04
tp707
I118
s(g189
F0.062
tp708
I118
s(g241
F0.2
tp709
I103
s(g358
F0.04
tp710
I110
s(g110
F0.06
tp711
I116
s(g276
F0.061
tp712
I118
s(g260
F0.0
tp713
I101
s(g284
F0.061
tp714
I115
s(g542
F0.15
tp715
I105
s(g143
F0.061
tp716
I116
s(g110
F0.04
tp717
I116
s(g74
F0.062
tp718
I117
s(g456
F0.07
tp719
I114
s(g232
F0.056
tp720
I118
s(g364
F0.2
tp721
I95
s(g58
F0.059
tp722
I118
s(g299
F0.063
tp723
I117
s(g232
F0.057
tp724
I118
s(g177
F0.057
tp725
I119
s(g592
F0.08
tp726
I114
s(g406
F0.07
tp727
I117
s(g14
F0.058
tp728
I119
s(g212
F0.056
tp729
I118
s(g87
F0.061
tp730
I116
s(g370
F0.02
tp731
I108
s(g456
F0.02
tp732
I112
s(g173
F0.1
tp733
I114
s(g555
F0.12
tp734
I116
s(g46
F0.056
tp735
I116
s(g156
F0.14
tp736
I101
s(g334
F0.05
tp737
I108
s(g465
F0.2
tp738
I109
s(g160
F0.01
tp739
I106
s(g232
F0.063
tp740
I115
s(g358
F0.02
tp741
I110
s(g276
F0.056
tp742
I118
s(g364
F0.05
tp743
I105
s(g284
F0.057
tp744
I116
s(g249
F0.08
tp745
I114
s(g623
F0.02
tp746
I113
s(g542
F0.05
tp747
I117
s(g299
F0.065
tp748
I117
s(g87
F0.065
tp749
I115
s(g245
F0.07
tp750
I113
s(g548
F0.02
tp751
I114
s(g30
F0.02
tp752
I113
s(g18
F0.062
tp753
I117
s(g284
F0.064
tp754
I115
s(g34
F0.09
tp755
I116
s(g1
(g5
S'Z\x00\x00\x00\x00\x00\x00\x00'
p756
tp757
Rp758
F0.09
tp759
I115
s(g165
F0.057
tp760
I118
s(g758
F0.01
tp761
I112
s(g232
F0.061
tp762
I118
s(g289
F0.061
tp763
I117
s(g189
F0.058
tp764
I118
s(g134
F0.05
tp765
I113
s(g313
F0.064
tp766
I114
s(g758
F0.03
tp767
I112
s(g370
F0.1
tp768
I100
s(g1
(g5
S'>\x00\x00\x00\x00\x00\x00\x00'
p769
tp770
Rp771
F0.02
tp772
I112
s(g82
F0.064
tp773
I118
s(g465
F0.0
tp774
I101
s(g317
F0.065
tp775
I117
s(g317
F0.056
tp776
I116
s(g30
F0.07
tp777
I113
s(g313
F0.062
tp778
I116
s(g349
F0.064
tp779
I122
s(g256
F0.03
tp780
I110
s(g185
F0.14
tp781
I103
s(g389
F0.03
tp782
I113
s(g87
F0.057
tp783
I116
s(g10
F0.061
tp784
I117
s(g526
F0.08
tp785
I114
s(g406
F0.01
tp786
I108
s(g22
F0.055
tp787
I112
s(g456
F0.04
tp788
I116
s(g114
F0.064
tp789
I117
s(g212
F0.062
tp790
I118
s(g542
F0.2
tp791
I104
s(g289
F0.065
tp792
I116
s(g245
F0.01
tp793
I110
s(g280
F0.05
tp794
I113
s(g411
F0.06
tp795
I119
s(g317
F0.061
tp796
I119
s(g165
F0.059
tp797
I120
s(g256
F0.02
tp798
I106
s(g456
F0.03
tp799
I121
s(g212
F0.063
tp800
I117
s(g1
(g5
S'U\x00\x00\x00\x00\x00\x00\x00'
p801
tp802
Rp803
I0
tp804
I101
s(g74
F0.059
tp805
I118
s(g30
F0.04
tp806
I119
s(g309
F0.14
tp807
I99
s(g280
F0.0
tp808
I101
s(g289
F0.056
tp809
I117
s(g96
F0.02
tp810
I109
s(g105
F0.063
tp811
I120
s(g224
F0.061
tp812
I116
s(g465
F0.1
tp813
I119
s(g303
F0.08
tp814
I101
s(g82
F0.063
tp815
I118
s(g220
F0.2
tp816
I100
s(g42
F0.04
tp817
I118
s(g406
F0.09
tp818
I120
s(g592
F0.14
tp819
I111
s(g293
F0.02
tp820
I109
s(g358
F0.09
tp821
I106
s(g212
F0.057
tp822
I117
s(g46
F0.059
tp823
I116
s(g189
F0.059
tp824
I119
s(g173
F0.02
tp825
I113
s(g165
F0.062
tp826
I120
s(g313
F0.058
tp827
I117
s(g87
F0.058
tp828
I117
s(g177
F0.058
tp829
I120
s(g82
F0.062
tp830
I119
s(g224
F0.063
tp831
I116
s(g284
F0.058
tp832
I117
s(g114
F0.061
tp833
I118
s(g124
F0.057
tp834
I118
s(g349
F0.055
tp835
I121
s(g66
F0.056
tp836
I113
s(g197
F0.03
tp837
I114
s(g771
F0.1
tp838
I114
s(g236
F0.08
tp839
I116
s(g58
F0.056
tp840
I117
s(g18
F0.065
tp841
I116
s(g358
F0.03
tp842
I114
s(g345
F0.04
tp843
I117
s(g323
F0.02
tp844
I110
s(g58
F0.062
tp845
I117
s(g293
F0.04
tp846
I111
s(g256
F0.01
tp847
I104
s(g370
F0.04
tp848
I111
s(g66
F0.059
tp849
I116
s(g411
F0.12
tp850
I111
s(g160
F0.05
tp851
I107
s(g207
F0.04
tp852
I112
s(g289
F0.059
tp853
I118
s(g114
F0.059
tp854
I119
s(g114
F0.065
tp855
I117
s(g313
F0.057
tp856
I116
s(g10
F0.055
tp857
I119
s(g66
F0.063
tp858
I115
s(g134
F0.02
tp859
I113
s(g143
F0.065
tp860
I114
s(g771
F0.06
tp861
I118
s(g425
F0.04
tp862
I119
s(g134
F0.06
tp863
I115
s(g207
F0.02
tp864
I107
s(g212
F0.061
tp865
I118
s(g147
F0.064
tp866
I115
s(g299
F0.056
tp867
I118
s(g345
F0.08
tp868
I115
s(g313
F0.059
tp869
I117
s(g526
F0.12
tp870
I113
s(g14
F0.064
tp871
I119
s(g349
F0.057
tp872
I120
s(g555
F0.06
tp873
I121
s(g284
F0.065
tp874
I115
s(g349
F0.062
tp875
I122
s(g313
F0.063
tp876
I115
s(g91
F0.1
tp877
I117
s(g771
F0.04
tp878
I116
s(g151
F0.059
tp879
I119
s(g105
F0.056
tp880
I119
s(g101
F0.02
tp881
I111
s(g147
F0.065
tp882
I115
s(g46
F0.065
tp883
I115
s(g389
F0.07
tp884
I112
s(g349
F0.063
tp885
I122
s(g212
F0.065
tp886
I117
s(g70
F0.0
tp887
I101
s(g249
F0.05
tp888
I114
s(g189
F0.056
tp889
I117
s(g26
F0.05
tp890
I115
s(g14
F0.057
tp891
I118
s(g114
F0.058
tp892
I120
s(g87
F0.063
tp893
I115
s(g276
F0.057
tp894
I118
s(g771
F0.08
tp895
I114
s(g224
F0.058
tp896
I116
s(g202
F0.1
tp897
I113
s(g456
F0.09
tp898
I117
s(g197
F0.08
tp899
I114
s(g411
F0.14
tp900
I106
s(g78
F0.06
tp901
I120
s(g160
F0.04
tp902
I112
s(g10
F0.059
tp903
I118
s(g681
F0.04
tp904
I106
s(g232
F0.062
tp905
I116
s(g406
F0.04
tp906
I117
s(g220
F0.05
tp907
I107
s(g349
F0.056
tp908
I120
s(g345
F0.1
tp909
I113
s(g160
F0.09
tp910
I107
s(g147
F0.061
tp911
I116
s(g249
F0.07
tp912
I113
s(g323
F0.04
tp913
I115
s(g317
F0.063
tp914
I118
s(g124
F0.062
tp915
I118
s(g58
F0.064
tp916
I116
s(g22
F0.065
tp917
I113
s(g22
F0.063
tp918
I113
s(g50
F0.062
tp919
I118
s(g50
F0.059
tp920
I121
s(g18
F0.063
tp921
I116
s(g280
F0.15
tp922
I103
s(g14
F0.055
tp923
I121
s(g260
F0.05
tp924
I115
s(g349
F0.058
tp925
I121
s(g147
F0.058
tp926
I117
s(g280
F0.1
tp927
I113
s(g758
F0.07
tp928
I113
s(g442
F0.08
tp929
I103
s(g299
F0.055
tp930
I118
s(g236
F0.12
tp931
I115
s(g284
F0.062
tp932
I115
s(g555
F0.08
tp933
I118
s(g542
F0.1
tp934
I114
s(g143
F0.055
tp935
I116
s(g309
F0.08
tp936
I103
s(g38
F0.08
tp937
I106
s(g317
F0.059
tp938
I120
s.